---
triple:          'x86_64-apple-darwin'
binary-path:     '/Users/oghenefejiroabohweyere/Documents/algo_learn/graph/graph'
relocations:
  - { offsetInCU: 0xEF, offset: 0xEF, size: 0x8, addend: 0x0, symName: __ZNKSt4hashIcEclEc, symObjAddr: 0x0, symBinAddr: 0x100000E56, symSize: 0x14 }
  - { offsetInCU: 0x557, offset: 0x557, size: 0x8, addend: 0x0, symName: __ZSt19piecewise_construct, symObjAddr: 0x7770, symBinAddr: 0x100009000, symSize: 0x0 }
  - { offsetInCU: 0x13221, offset: 0x13221, size: 0x8, addend: 0x0, symName: __ZSt16is_invocable_r_vIvRZ4mainEUlcE_JcEE, symObjAddr: 0x7771, symBinAddr: 0x100009001, symSize: 0x0 }
  - { offsetInCU: 0x13244, offset: 0x13244, size: 0x8, addend: 0x0, symName: __ZSt24is_nothrow_invocable_r_vIvRZ4mainEUlcE_JcEE, symObjAddr: 0x7772, symBinAddr: 0x100009002, symSize: 0x0 }
  - { offsetInCU: 0x13257, offset: 0x13257, size: 0x8, addend: 0x0, symName: __ZNSt10_Head_baseILm0ERKcLb0EE7_M_headERS2_, symObjAddr: 0x775B, symBinAddr: 0x1000085B1, symSize: 0x11 }
  - { offsetInCU: 0x13288, offset: 0x13288, size: 0x8, addend: 0x0, symName: __ZNSt11_Tuple_implILm0EJRKcEE7_M_headERS2_, symObjAddr: 0x7741, symBinAddr: 0x100008597, symSize: 0x1A }
  - { offsetInCU: 0x13290, offset: 0x13290, size: 0x8, addend: 0x0, symName: __ZNSt10_Head_baseILm0ERKcLb0EE7_M_headERS2_, symObjAddr: 0x775B, symBinAddr: 0x1000085B1, symSize: 0x11 }
  - { offsetInCU: 0x132D3, offset: 0x132D3, size: 0x8, addend: 0x0, symName: __ZNSt11__copy_moveILb0ELb0ESt26random_access_iterator_tagE12__assign_oneIPcS3_EEvPT_PT0_, symObjAddr: 0x7724, symBinAddr: 0x10000857A, symSize: 0x1D }
  - { offsetInCU: 0x132DB, offset: 0x132DB, size: 0x8, addend: 0x0, symName: __ZNSt11_Tuple_implILm0EJRKcEE7_M_headERS2_, symObjAddr: 0x7741, symBinAddr: 0x100008597, symSize: 0x1A }
  - { offsetInCU: 0x133C9, offset: 0x133C9, size: 0x8, addend: 0x0, symName: __ZSt12__get_helperILm0ERKcJEERT0_RSt11_Tuple_implIXT_EJS2_DpT1_EE, symObjAddr: 0x770A, symBinAddr: 0x100008560, symSize: 0x1A }
  - { offsetInCU: 0x133D1, offset: 0x133D1, size: 0x8, addend: 0x0, symName: __ZNSt11__copy_moveILb0ELb0ESt26random_access_iterator_tagE12__assign_oneIPcS3_EEvPT_PT0_, symObjAddr: 0x7724, symBinAddr: 0x10000857A, symSize: 0x1D }
  - { offsetInCU: 0x133C4, offset: 0x133C4, size: 0x8, addend: 0x0, symName: __ZNSt8__detail16_Hashtable_allocISaINS_10_Hash_nodeIcLb0EEEEE19_M_allocate_bucketsEm, symObjAddr: 0x7654, symBinAddr: 0x1000084AA, symSize: 0xB6 }
  - { offsetInCU: 0x133CC, offset: 0x133CC, size: 0x8, addend: 0x0, symName: __ZSt12__get_helperILm0ERKcJEERT0_RSt11_Tuple_implIXT_EJS2_DpT1_EE, symObjAddr: 0x770A, symBinAddr: 0x100008560, symSize: 0x1A }
  - { offsetInCU: 0x13564, offset: 0x13564, size: 0x8, addend: 0x0, symName: __ZNSt15__new_allocatorINSt8__detail10_Hash_nodeIcLb0EEEE8allocateEmPKv, symObjAddr: 0x75EC, symBinAddr: 0x100008442, symSize: 0x68 }
  - { offsetInCU: 0x135EA, offset: 0x135EA, size: 0x8, addend: 0x0, symName: __ZNSt20__copy_move_backwardILb0ELb1ESt26random_access_iterator_tagE13__copy_move_bIPcS3_EEPT0_PT_S7_S5_, symObjAddr: 0x7550, symBinAddr: 0x1000083A6, symSize: 0x9C }
  - { offsetInCU: 0x13672, offset: 0x13672, size: 0x8, addend: 0x0, symName: __ZNSt11__copy_moveILb0ELb1ESt26random_access_iterator_tagE8__copy_mIPcS3_EEPT0_PT_S7_S5_, symObjAddr: 0x74CC, symBinAddr: 0x100008322, symSize: 0x84 }
  - { offsetInCU: 0x1367A, offset: 0x1367A, size: 0x8, addend: 0x0, symName: __ZNSt20__copy_move_backwardILb0ELb1ESt26random_access_iterator_tagE13__copy_move_bIPcS3_EEPT0_PT_S7_S5_, symObjAddr: 0x7550, symBinAddr: 0x1000083A6, symSize: 0x9C }
  - { offsetInCU: 0x136FA, offset: 0x136FA, size: 0x8, addend: 0x0, symName: __ZNSt8__detail16_Hashtable_allocISaINS_10_Hash_nodeI4EdgeIcELb1EEEEE19_M_allocate_bucketsEm, symObjAddr: 0x7416, symBinAddr: 0x10000826C, symSize: 0xB6 }
  - { offsetInCU: 0x13702, offset: 0x13702, size: 0x8, addend: 0x0, symName: __ZNSt11__copy_moveILb0ELb1ESt26random_access_iterator_tagE8__copy_mIPcS3_EEPT0_PT_S7_S5_, symObjAddr: 0x74CC, symBinAddr: 0x100008322, symSize: 0x84 }
  - { offsetInCU: 0x138A4, offset: 0x138A4, size: 0x8, addend: 0x0, symName: __ZNSt15__new_allocatorINSt8__detail10_Hash_nodeI4EdgeIcELb1EEEE8allocateEmPKv, symObjAddr: 0x73AE, symBinAddr: 0x100008204, symSize: 0x68 }
  - { offsetInCU: 0x1392A, offset: 0x1392A, size: 0x8, addend: 0x0, symName: __ZNSt15__new_allocatorIPNSt8__detail15_Hash_node_baseEE8allocateEmPKv, symObjAddr: 0x7346, symBinAddr: 0x10000819C, symSize: 0x68 }
  - { offsetInCU: 0x13A11, offset: 0x13A11, size: 0x8, addend: 0x0, symName: __ZSt3getILm0EJRKcEERNSt13tuple_elementIXT_ESt5tupleIJDpT0_EEE4typeERS6_, symObjAddr: 0x732C, symBinAddr: 0x100008182, symSize: 0x1A }
  - { offsetInCU: 0x13A19, offset: 0x13A19, size: 0x8, addend: 0x0, symName: __ZNSt15__new_allocatorIPNSt8__detail15_Hash_node_baseEE8allocateEmPKv, symObjAddr: 0x7346, symBinAddr: 0x10000819C, symSize: 0x68 }
  - { offsetInCU: 0x13A0C, offset: 0x13A0C, size: 0x8, addend: 0x0, symName: __ZNSt10_HashtableIccSaIcENSt8__detail9_IdentityESt8equal_toIcESt4hashIcENS1_18_Mod_range_hashingENS1_20_Default_ranged_hashENS1_20_Prime_rehash_policyENS1_17_Hashtable_traitsILb0ELb1ELb1EEEE19_M_allocate_bucketsEm, symObjAddr: 0x72E0, symBinAddr: 0x100008136, symSize: 0x4C }
  - { offsetInCU: 0x13A14, offset: 0x13A14, size: 0x8, addend: 0x0, symName: __ZSt3getILm0EJRKcEERNSt13tuple_elementIXT_ESt5tupleIJDpT0_EEE4typeERS6_, symObjAddr: 0x732C, symBinAddr: 0x100008182, symSize: 0x1A }
  - { offsetInCU: 0x13B1C, offset: 0x13B1C, size: 0x8, addend: 0x0, symName: __ZSt12__to_addressINSt8__detail10_Hash_nodeIcLb0EEEEPT_S4_, symObjAddr: 0x72D2, symBinAddr: 0x100008128, symSize: 0xE }
  - { offsetInCU: 0x13B24, offset: 0x13B24, size: 0x8, addend: 0x0, symName: __ZNSt10_HashtableIccSaIcENSt8__detail9_IdentityESt8equal_toIcESt4hashIcENS1_18_Mod_range_hashingENS1_20_Default_ranged_hashENS1_20_Prime_rehash_policyENS1_17_Hashtable_traitsILb0ELb1ELb1EEEE19_M_allocate_bucketsEm, symObjAddr: 0x72E0, symBinAddr: 0x100008136, symSize: 0x4C }
  - { offsetInCU: 0x13B88, offset: 0x13B88, size: 0x8, addend: 0x0, symName: __ZSt23__copy_move_backward_a2ILb0EPPcS1_ET1_T0_S3_S2_, symObjAddr: 0x72A5, symBinAddr: 0x1000080FB, symSize: 0x2D }
  - { offsetInCU: 0x13B90, offset: 0x13B90, size: 0x8, addend: 0x0, symName: __ZSt12__to_addressINSt8__detail10_Hash_nodeIcLb0EEEEPT_S4_, symObjAddr: 0x72D2, symBinAddr: 0x100008128, symSize: 0xE }
  - { offsetInCU: 0x13C05, offset: 0x13C05, size: 0x8, addend: 0x0, symName: __ZSt14__copy_move_a2ILb0EPPcS1_ET1_T0_S3_S2_, symObjAddr: 0x7278, symBinAddr: 0x1000080CE, symSize: 0x2D }
  - { offsetInCU: 0x13C0D, offset: 0x13C0D, size: 0x8, addend: 0x0, symName: __ZSt23__copy_move_backward_a2ILb0EPPcS1_ET1_T0_S3_S2_, symObjAddr: 0x72A5, symBinAddr: 0x1000080FB, symSize: 0x2D }
  - { offsetInCU: 0x13C3C, offset: 0x13C3C, size: 0x8, addend: 0x0, symName: __ZNSt10_HashtableI4EdgeIcES1_SaIS1_ENSt8__detail9_IdentityESt8equal_toIS1_ESt4hashIS1_ENS3_18_Mod_range_hashingENS3_20_Default_ranged_hashENS3_20_Prime_rehash_policyENS3_17_Hashtable_traitsILb1ELb1ELb1EEEE19_M_allocate_bucketsEm, symObjAddr: 0x722C, symBinAddr: 0x100008082, symSize: 0x4C }
  - { offsetInCU: 0x13C44, offset: 0x13C44, size: 0x8, addend: 0x0, symName: __ZSt14__copy_move_a2ILb0EPPcS1_ET1_T0_S3_S2_, symObjAddr: 0x7278, symBinAddr: 0x1000080CE, symSize: 0x2D }
  - { offsetInCU: 0x13D58, offset: 0x13D58, size: 0x8, addend: 0x0, symName: __ZSt12__to_addressINSt8__detail10_Hash_nodeI4EdgeIcELb1EEEEPT_S6_, symObjAddr: 0x721E, symBinAddr: 0x100008074, symSize: 0xE }
  - { offsetInCU: 0x13D60, offset: 0x13D60, size: 0x8, addend: 0x0, symName: __ZNSt10_HashtableI4EdgeIcES1_SaIS1_ENSt8__detail9_IdentityESt8equal_toIS1_ESt4hashIS1_ENS3_18_Mod_range_hashingENS3_20_Default_ranged_hashENS3_20_Prime_rehash_policyENS3_17_Hashtable_traitsILb1ELb1ELb1EEEE19_M_allocate_bucketsEm, symObjAddr: 0x722C, symBinAddr: 0x100008082, symSize: 0x4C }
  - { offsetInCU: 0x13D52, offset: 0x13D52, size: 0x8, addend: 0x0, symName: __ZNK9__gnu_cxx16__aligned_bufferI4EdgeIcEE7_M_addrEv, symObjAddr: 0x7210, symBinAddr: 0x100008066, symSize: 0xE }
  - { offsetInCU: 0x13D5A, offset: 0x13D5A, size: 0x8, addend: 0x0, symName: __ZSt12__to_addressINSt8__detail10_Hash_nodeI4EdgeIcELb1EEEEPT_S6_, symObjAddr: 0x721E, symBinAddr: 0x100008074, symSize: 0xE }
  - { offsetInCU: 0x13E05, offset: 0x13E05, size: 0x8, addend: 0x0, symName: __ZSt11__addressofINSt8__detail10_Hash_nodeI4EdgeIcELb1EEEEPT_RS5_, symObjAddr: 0x7202, symBinAddr: 0x100008058, symSize: 0xE }
  - { offsetInCU: 0x13E0D, offset: 0x13E0D, size: 0x8, addend: 0x0, symName: __ZNK9__gnu_cxx16__aligned_bufferI4EdgeIcEE7_M_addrEv, symObjAddr: 0x7210, symBinAddr: 0x100008066, symSize: 0xE }
  - { offsetInCU: 0x13E3B, offset: 0x13E3B, size: 0x8, addend: 0x0, symName: __ZSt12__to_addressIPNSt8__detail15_Hash_node_baseEEPT_S4_, symObjAddr: 0x71F4, symBinAddr: 0x10000804A, symSize: 0xE }
  - { offsetInCU: 0x13E43, offset: 0x13E43, size: 0x8, addend: 0x0, symName: __ZSt11__addressofINSt8__detail10_Hash_nodeI4EdgeIcELb1EEEEPT_RS5_, symObjAddr: 0x7202, symBinAddr: 0x100008058, symSize: 0xE }
  - { offsetInCU: 0x13F6B, offset: 0x13F6B, size: 0x8, addend: 0x0, symName: __ZNSt4pairIKcSt13unordered_setI4EdgeIcESt4hashIS3_ESt8equal_toIS3_ESaIS3_EEEC1IJRS0_EJLm0EEJEJEEERSt5tupleIJDpT_EERSD_IJDpT1_EESt12_Index_tupleIJXspT0_EEESM_IJXspT2_EEE, symObjAddr: 0x7198, symBinAddr: 0x100007FEE, symSize: 0x5C }
  - { offsetInCU: 0x13F73, offset: 0x13F73, size: 0x8, addend: 0x0, symName: __ZSt12__to_addressIPNSt8__detail15_Hash_node_baseEEPT_S4_, symObjAddr: 0x71F4, symBinAddr: 0x10000804A, symSize: 0xE }
  - { offsetInCU: 0x13F4F, offset: 0x13F4F, size: 0x8, addend: 0x0, symName: __ZNSt10_HashtableIccSaIcENSt8__detail9_IdentityESt8equal_toIcESt4hashIcENS1_18_Mod_range_hashingENS1_20_Default_ranged_hashENS1_20_Prime_rehash_policyENS1_17_Hashtable_traitsILb0ELb1ELb1EEEE13_M_rehash_auxEmSt17integral_constantIbLb1EE, symObjAddr: 0x701E, symBinAddr: 0x100007E74, symSize: 0x17A }
  - { offsetInCU: 0x14016, offset: 0x14016, size: 0x8, addend: 0x0, symName: __ZNSt8__detail16_Hashtable_allocISaINS_10_Hash_nodeIcLb0EEEEE16_M_allocate_nodeIJRKcEEEPS2_DpOT_, symObjAddr: 0x6F1E, symBinAddr: 0x100007D74, symSize: 0x100 }
  - { offsetInCU: 0x14187, offset: 0x14187, size: 0x8, addend: 0x0, symName: __ZNSt8__detail10_Hash_nodeIcLb0EEC1Ev, symObjAddr: 0x6F02, symBinAddr: 0x100007D58, symSize: 0x1C }
  - { offsetInCU: 0x1418F, offset: 0x1418F, size: 0x8, addend: 0x0, symName: __ZNKSt8__detail15_Hashtable_baseIccNS_9_IdentityESt8equal_toIcESt4hashIcENS_18_Mod_range_hashingENS_20_Default_ranged_hashENS_17_Hashtable_traitsILb0ELb1ELb1EEEE12_M_equals_trIcEEbRKT_mRKNS_16_Hash_node_valueIcLb0EEE, symObjAddr: 0x6EAA, symBinAddr: 0x100007D00, symSize: 0x58 }
  - { offsetInCU: 0x14197, offset: 0x14197, size: 0x8, addend: 0x0, symName: __ZNSt8__detail10_Hash_nodeIcLb0EEC1Ev, symObjAddr: 0x6F02, symBinAddr: 0x100007D58, symSize: 0x1C }
  - { offsetInCU: 0x14271, offset: 0x14271, size: 0x8, addend: 0x0, symName: __ZSt23__copy_move_backward_a1ILb0EPPcS1_ET1_T0_S3_S2_, symObjAddr: 0x6E7C, symBinAddr: 0x100007CD2, symSize: 0x2E }
  - { offsetInCU: 0x142D2, offset: 0x142D2, size: 0x8, addend: 0x0, symName: __ZSt12__niter_wrapIPPcET_RKS2_S2_, symObjAddr: 0x6E6A, symBinAddr: 0x100007CC0, symSize: 0x12 }
  - { offsetInCU: 0x142DA, offset: 0x142DA, size: 0x8, addend: 0x0, symName: __ZSt23__copy_move_backward_a1ILb0EPPcS1_ET1_T0_S3_S2_, symObjAddr: 0x6E7C, symBinAddr: 0x100007CD2, symSize: 0x2E }
  - { offsetInCU: 0x14346, offset: 0x14346, size: 0x8, addend: 0x0, symName: __ZSt14__copy_move_a1ILb0EPPcS1_ET1_T0_S3_S2_, symObjAddr: 0x6E3D, symBinAddr: 0x100007C93, symSize: 0x2D }
  - { offsetInCU: 0x1434E, offset: 0x1434E, size: 0x8, addend: 0x0, symName: __ZSt12__niter_wrapIPPcET_RKS2_S2_, symObjAddr: 0x6E6A, symBinAddr: 0x100007CC0, symSize: 0x12 }
  - { offsetInCU: 0x143B4, offset: 0x143B4, size: 0x8, addend: 0x0, symName: __ZSt12__niter_baseIPPcET_S2_, symObjAddr: 0x6E2F, symBinAddr: 0x100007C85, symSize: 0xE }
  - { offsetInCU: 0x143BC, offset: 0x143BC, size: 0x8, addend: 0x0, symName: __ZSt14__copy_move_a1ILb0EPPcS1_ET1_T0_S3_S2_, symObjAddr: 0x6E3D, symBinAddr: 0x100007C93, symSize: 0x2D }
  - { offsetInCU: 0x1443D, offset: 0x1443D, size: 0x8, addend: 0x0, symName: __ZSt11__addressofINSt8__detail10_Hash_nodeIcLb0EEEEPT_RS3_, symObjAddr: 0x6E21, symBinAddr: 0x100007C77, symSize: 0xE }
  - { offsetInCU: 0x14445, offset: 0x14445, size: 0x8, addend: 0x0, symName: __ZSt12__niter_baseIPPcET_S2_, symObjAddr: 0x6E2F, symBinAddr: 0x100007C85, symSize: 0xE }
  - { offsetInCU: 0x14413, offset: 0x14413, size: 0x8, addend: 0x0, symName: __ZNSt10_HashtableI4EdgeIcES1_SaIS1_ENSt8__detail9_IdentityESt8equal_toIS1_ESt4hashIS1_ENS3_18_Mod_range_hashingENS3_20_Default_ranged_hashENS3_20_Prime_rehash_policyENS3_17_Hashtable_traitsILb1ELb1ELb1EEEE13_M_rehash_auxEmSt17integral_constantIbLb1EE, symObjAddr: 0x6CA8, symBinAddr: 0x100007AFE, symSize: 0x179 }
  - { offsetInCU: 0x1441B, offset: 0x1441B, size: 0x8, addend: 0x0, symName: __ZSt11__addressofINSt8__detail10_Hash_nodeIcLb0EEEEPT_RS3_, symObjAddr: 0x6E21, symBinAddr: 0x100007C77, symSize: 0xE }
  - { offsetInCU: 0x144DA, offset: 0x144DA, size: 0x8, addend: 0x0, symName: __ZNSt8__detail16_Hashtable_allocISaINS_10_Hash_nodeI4EdgeIcELb1EEEEE16_M_allocate_nodeIJS3_EEEPS4_DpOT_, symObjAddr: 0x6BA0, symBinAddr: 0x1000079F6, symSize: 0x108 }
  - { offsetInCU: 0x144E2, offset: 0x144E2, size: 0x8, addend: 0x0, symName: __ZNSt10_HashtableI4EdgeIcES1_SaIS1_ENSt8__detail9_IdentityESt8equal_toIS1_ESt4hashIS1_ENS3_18_Mod_range_hashingENS3_20_Default_ranged_hashENS3_20_Prime_rehash_policyENS3_17_Hashtable_traitsILb1ELb1ELb1EEEE13_M_rehash_auxEmSt17integral_constantIbLb1EE, symObjAddr: 0x6CA8, symBinAddr: 0x100007AFE, symSize: 0x179 }
  - { offsetInCU: 0x14652, offset: 0x14652, size: 0x8, addend: 0x0, symName: __ZNSt8__detail10_Hash_nodeI4EdgeIcELb1EEC1Ev, symObjAddr: 0x6B84, symBinAddr: 0x1000079DA, symSize: 0x1C }
  - { offsetInCU: 0x14653, offset: 0x14653, size: 0x8, addend: 0x0, symName: __ZNKSt8__detail15_Hashtable_baseI4EdgeIcES2_NS_9_IdentityESt8equal_toIS2_ESt4hashIS2_ENS_18_Mod_range_hashingENS_20_Default_ranged_hashENS_17_Hashtable_traitsILb1ELb1ELb1EEEE12_M_equals_trIS2_EEbRKT_mRKNS_16_Hash_node_valueIS2_Lb1EEE, symObjAddr: 0x6B28, symBinAddr: 0x10000797E, symSize: 0x5C }
  - { offsetInCU: 0x1465B, offset: 0x1465B, size: 0x8, addend: 0x0, symName: __ZNSt8__detail10_Hash_nodeI4EdgeIcELb1EEC1Ev, symObjAddr: 0x6B84, symBinAddr: 0x1000079DA, symSize: 0x1C }
  - { offsetInCU: 0x146CB, offset: 0x146CB, size: 0x8, addend: 0x0, symName: __ZNK9__gnu_cxx16__aligned_bufferI4EdgeIcEE6_M_ptrEv, symObjAddr: 0x6B0E, symBinAddr: 0x100007964, symSize: 0x1A }
  - { offsetInCU: 0x146D3, offset: 0x146D3, size: 0x8, addend: 0x0, symName: __ZNKSt8__detail15_Hashtable_baseI4EdgeIcES2_NS_9_IdentityESt8equal_toIS2_ESt4hashIS2_ENS_18_Mod_range_hashingENS_20_Default_ranged_hashENS_17_Hashtable_traitsILb1ELb1ELb1EEEE12_M_equals_trIS2_EEbRKT_mRKNS_16_Hash_node_valueIS2_Lb1EEE, symObjAddr: 0x6B28, symBinAddr: 0x10000797E, symSize: 0x5C }
  - { offsetInCU: 0x146FA, offset: 0x146FA, size: 0x8, addend: 0x0, symName: __ZNSt15__new_allocatorINSt8__detail10_Hash_nodeI4EdgeIcELb1EEEE10deallocateEPS4_m, symObjAddr: 0x6ADE, symBinAddr: 0x100007934, symSize: 0x30 }
  - { offsetInCU: 0x14702, offset: 0x14702, size: 0x8, addend: 0x0, symName: __ZNK9__gnu_cxx16__aligned_bufferI4EdgeIcEE6_M_ptrEv, symObjAddr: 0x6B0E, symBinAddr: 0x100007964, symSize: 0x1A }
  - { offsetInCU: 0x147CA, offset: 0x147CA, size: 0x8, addend: 0x0, symName: __ZSt9addressofINSt8__detail10_Hash_nodeI4EdgeIcELb1EEEEPT_RS5_, symObjAddr: 0x6AC4, symBinAddr: 0x10000791A, symSize: 0x1A }
  - { offsetInCU: 0x147D2, offset: 0x147D2, size: 0x8, addend: 0x0, symName: __ZNSt15__new_allocatorINSt8__detail10_Hash_nodeI4EdgeIcELb1EEEE10deallocateEPS4_m, symObjAddr: 0x6ADE, symBinAddr: 0x100007934, symSize: 0x30 }
  - { offsetInCU: 0x14799, offset: 0x14799, size: 0x8, addend: 0x0, symName: __ZNSt8__detail16_Hashtable_allocISaINS_10_Hash_nodeISt4pairIKcSt13unordered_setI4EdgeIcESt4hashIS6_ESt8equal_toIS6_ESaIS6_EEELb0EEEEE19_M_allocate_bucketsEm, symObjAddr: 0x6A0E, symBinAddr: 0x100007864, symSize: 0xB6 }
  - { offsetInCU: 0x147A1, offset: 0x147A1, size: 0x8, addend: 0x0, symName: __ZSt9addressofINSt8__detail10_Hash_nodeI4EdgeIcELb1EEEEPT_RS5_, symObjAddr: 0x6AC4, symBinAddr: 0x10000791A, symSize: 0x1A }
  - { offsetInCU: 0x149CD, offset: 0x149CD, size: 0x8, addend: 0x0, symName: __ZNSt4pairIKcSt13unordered_setI4EdgeIcESt4hashIS3_ESt8equal_toIS3_ESaIS3_EEEC1IJRS0_EJEEESt21piecewise_construct_tSt5tupleIJDpT_EESE_IJDpT0_EE, symObjAddr: 0x69E4, symBinAddr: 0x10000783A, symSize: 0x2A }
  - { offsetInCU: 0x149D5, offset: 0x149D5, size: 0x8, addend: 0x0, symName: __ZNSt8__detail16_Hashtable_allocISaINS_10_Hash_nodeISt4pairIKcSt13unordered_setI4EdgeIcESt4hashIS6_ESt8equal_toIS6_ESaIS6_EEELb0EEEEE19_M_allocate_bucketsEm, symObjAddr: 0x6A0E, symBinAddr: 0x100007864, symSize: 0xB6 }
  - { offsetInCU: 0x149F4, offset: 0x149F4, size: 0x8, addend: 0x0, symName: __ZNSt11_Tuple_implILm0EJRKcEEC2EOS2_, symObjAddr: 0x69C6, symBinAddr: 0x10000781C, symSize: 0x1E }
  - { offsetInCU: 0x14A26, offset: 0x14A26, size: 0x8, addend: 0x0, symName: __ZNK9__gnu_cxx16__aligned_bufferISt4pairIKcSt13unordered_setI4EdgeIcESt4hashIS5_ESt8equal_toIS5_ESaIS5_EEEE7_M_addrEv, symObjAddr: 0x69B8, symBinAddr: 0x10000780E, symSize: 0xE }
  - { offsetInCU: 0x14A2E, offset: 0x14A2E, size: 0x8, addend: 0x0, symName: __ZNSt11_Tuple_implILm0EJRKcEEC2EOS2_, symObjAddr: 0x69C6, symBinAddr: 0x10000781C, symSize: 0x1E }
  - { offsetInCU: 0x14A59, offset: 0x14A59, size: 0x8, addend: 0x0, symName: __ZNSt10_HashtableIccSaIcENSt8__detail9_IdentityESt8equal_toIcESt4hashIcENS1_18_Mod_range_hashingENS1_20_Default_ranged_hashENS1_20_Prime_rehash_policyENS1_17_Hashtable_traitsILb0ELb1ELb1EEEE22_M_insert_bucket_beginEmPNS1_10_Hash_nodeIcLb0EEE, symObjAddr: 0x68C8, symBinAddr: 0x10000771E, symSize: 0xF0 }
  - { offsetInCU: 0x14A61, offset: 0x14A61, size: 0x8, addend: 0x0, symName: __ZNK9__gnu_cxx16__aligned_bufferISt4pairIKcSt13unordered_setI4EdgeIcESt4hashIS5_ESt8equal_toIS5_ESaIS5_EEEE7_M_addrEv, symObjAddr: 0x69B8, symBinAddr: 0x10000780E, symSize: 0xE }
  - { offsetInCU: 0x14AB0, offset: 0x14AB0, size: 0x8, addend: 0x0, symName: __ZNKSt8__detail15_Hash_code_baseIccNS_9_IdentityESt4hashIcENS_18_Mod_range_hashingENS_20_Default_ranged_hashELb0EE13_M_store_codeERNS_21_Hash_node_code_cacheILb0EEEm, symObjAddr: 0x68B4, symBinAddr: 0x10000770A, symSize: 0x14 }
  - { offsetInCU: 0x14AF7, offset: 0x14AF7, size: 0x8, addend: 0x0, symName: __ZNSt10_HashtableIccSaIcENSt8__detail9_IdentityESt8equal_toIcESt4hashIcENS1_18_Mod_range_hashingENS1_20_Default_ranged_hashENS1_20_Prime_rehash_policyENS1_17_Hashtable_traitsILb0ELb1ELb1EEEE9_M_rehashEmRKm, symObjAddr: 0x684A, symBinAddr: 0x1000076A0, symSize: 0x6A }
  - { offsetInCU: 0x14AFF, offset: 0x14AFF, size: 0x8, addend: 0x0, symName: __ZNKSt8__detail15_Hash_code_baseIccNS_9_IdentityESt4hashIcENS_18_Mod_range_hashingENS_20_Default_ranged_hashELb0EE13_M_store_codeERNS_21_Hash_node_code_cacheILb0EEEm, symObjAddr: 0x68B4, symBinAddr: 0x10000770A, symSize: 0x14 }
  - { offsetInCU: 0x14B6B, offset: 0x14B6B, size: 0x8, addend: 0x0, symName: __ZNKSt8__detail10_AllocNodeISaINS_10_Hash_nodeIcLb0EEEEEclIJRKcEEEPS2_DpOT_, symObjAddr: 0x6814, symBinAddr: 0x10000766A, symSize: 0x36 }
  - { offsetInCU: 0x14C54, offset: 0x14C54, size: 0x8, addend: 0x0, symName: __ZSt7forwardINSt8__detail14_Node_iteratorIcLb1ELb0EEEEOT_RNSt16remove_referenceIS3_E4typeE, symObjAddr: 0x6805, symBinAddr: 0x10000765B, symSize: 0xF }
  - { offsetInCU: 0x14C0E, offset: 0x14C0E, size: 0x8, addend: 0x0, symName: __ZNKSt10_HashtableIccSaIcENSt8__detail9_IdentityESt8equal_toIcESt4hashIcENS1_18_Mod_range_hashingENS1_20_Default_ranged_hashENS1_20_Prime_rehash_policyENS1_17_Hashtable_traitsILb0ELb1ELb1EEEE22_M_find_before_node_trIcEEPNS1_15_Hash_node_baseEmRKT_m, symObjAddr: 0x672C, symBinAddr: 0x100007582, symSize: 0xD9 }
  - { offsetInCU: 0x14C16, offset: 0x14C16, size: 0x8, addend: 0x0, symName: __ZSt7forwardINSt8__detail14_Node_iteratorIcLb1ELb0EEEEOT_RNSt16remove_referenceIS3_E4typeE, symObjAddr: 0x6805, symBinAddr: 0x10000765B, symSize: 0xF }
  - { offsetInCU: 0x14D5B, offset: 0x14D5B, size: 0x8, addend: 0x0, symName: __ZSt7forwardIRNSt8__detail14_Node_iteratorIcLb1ELb0EEEEOT_RNSt16remove_referenceIS4_E4typeE, symObjAddr: 0x671E, symBinAddr: 0x100007574, symSize: 0xE }
  - { offsetInCU: 0x14D63, offset: 0x14D63, size: 0x8, addend: 0x0, symName: __ZNKSt10_HashtableIccSaIcENSt8__detail9_IdentityESt8equal_toIcESt4hashIcENS1_18_Mod_range_hashingENS1_20_Default_ranged_hashENS1_20_Prime_rehash_policyENS1_17_Hashtable_traitsILb0ELb1ELb1EEEE22_M_find_before_node_trIcEEPNS1_15_Hash_node_baseEmRKT_m, symObjAddr: 0x672C, symBinAddr: 0x100007582, symSize: 0xD9 }
  - { offsetInCU: 0x14D18, offset: 0x14D18, size: 0x8, addend: 0x0, symName: __ZNK9__gnu_cxx16__aligned_bufferIcE7_M_addrEv, symObjAddr: 0x6710, symBinAddr: 0x100007566, symSize: 0xE }
  - { offsetInCU: 0x14D20, offset: 0x14D20, size: 0x8, addend: 0x0, symName: __ZSt7forwardIRNSt8__detail14_Node_iteratorIcLb1ELb0EEEEOT_RNSt16remove_referenceIS4_E4typeE, symObjAddr: 0x671E, symBinAddr: 0x100007574, symSize: 0xE }
  - { offsetInCU: 0x14DCC, offset: 0x14DCC, size: 0x8, addend: 0x0, symName: __ZSt22__copy_move_backward_aILb0EPPcS1_ET1_T0_S3_S2_, symObjAddr: 0x66A6, symBinAddr: 0x1000074FC, symSize: 0x6A }
  - { offsetInCU: 0x14DD4, offset: 0x14DD4, size: 0x8, addend: 0x0, symName: __ZNK9__gnu_cxx16__aligned_bufferIcE7_M_addrEv, symObjAddr: 0x6710, symBinAddr: 0x100007566, symSize: 0xE }
  - { offsetInCU: 0x14E49, offset: 0x14E49, size: 0x8, addend: 0x0, symName: __ZSt13__copy_move_aILb0EPPcS1_ET1_T0_S3_S2_, symObjAddr: 0x663C, symBinAddr: 0x100007492, symSize: 0x6A }
  - { offsetInCU: 0x14E51, offset: 0x14E51, size: 0x8, addend: 0x0, symName: __ZSt22__copy_move_backward_aILb0EPPcS1_ET1_T0_S3_S2_, symObjAddr: 0x66A6, symBinAddr: 0x1000074FC, symSize: 0x6A }
  - { offsetInCU: 0x14EB9, offset: 0x14EB9, size: 0x8, addend: 0x0, symName: __ZSt12__miter_baseIPPcET_S2_, symObjAddr: 0x662E, symBinAddr: 0x100007484, symSize: 0xE }
  - { offsetInCU: 0x14EC1, offset: 0x14EC1, size: 0x8, addend: 0x0, symName: __ZSt13__copy_move_aILb0EPPcS1_ET1_T0_S3_S2_, symObjAddr: 0x663C, symBinAddr: 0x100007492, symSize: 0x6A }
  - { offsetInCU: 0x14EE7, offset: 0x14EE7, size: 0x8, addend: 0x0, symName: __ZNSt15__new_allocatorINSt8__detail10_Hash_nodeIcLb0EEEE10deallocateEPS2_m, symObjAddr: 0x65FE, symBinAddr: 0x100007454, symSize: 0x30 }
  - { offsetInCU: 0x14EEF, offset: 0x14EEF, size: 0x8, addend: 0x0, symName: __ZSt12__miter_baseIPPcET_S2_, symObjAddr: 0x662E, symBinAddr: 0x100007484, symSize: 0xE }
  - { offsetInCU: 0x14FAB, offset: 0x14FAB, size: 0x8, addend: 0x0, symName: __ZSt9addressofINSt8__detail10_Hash_nodeIcLb0EEEEPT_RS3_, symObjAddr: 0x65E4, symBinAddr: 0x10000743A, symSize: 0x1A }
  - { offsetInCU: 0x14FB3, offset: 0x14FB3, size: 0x8, addend: 0x0, symName: __ZNSt15__new_allocatorINSt8__detail10_Hash_nodeIcLb0EEEE10deallocateEPS2_m, symObjAddr: 0x65FE, symBinAddr: 0x100007454, symSize: 0x30 }
  - { offsetInCU: 0x14F8A, offset: 0x14F8A, size: 0x8, addend: 0x0, symName: __ZN9__gnu_cxx16__aligned_bufferIcE7_M_addrEv, symObjAddr: 0x65D6, symBinAddr: 0x10000742C, symSize: 0xE }
  - { offsetInCU: 0x14F92, offset: 0x14F92, size: 0x8, addend: 0x0, symName: __ZSt9addressofINSt8__detail10_Hash_nodeIcLb0EEEEPT_RS3_, symObjAddr: 0x65E4, symBinAddr: 0x10000743A, symSize: 0x1A }
  - { offsetInCU: 0x14FD6, offset: 0x14FD6, size: 0x8, addend: 0x0, symName: __ZNSt10_HashtableI4EdgeIcES1_SaIS1_ENSt8__detail9_IdentityESt8equal_toIS1_ESt4hashIS1_ENS3_18_Mod_range_hashingENS3_20_Default_ranged_hashENS3_20_Prime_rehash_policyENS3_17_Hashtable_traitsILb1ELb1ELb1EEEE22_M_insert_bucket_beginEmPNS3_10_Hash_nodeIS1_Lb1EEE, symObjAddr: 0x64E6, symBinAddr: 0x10000733C, symSize: 0xF0 }
  - { offsetInCU: 0x14FDE, offset: 0x14FDE, size: 0x8, addend: 0x0, symName: __ZN9__gnu_cxx16__aligned_bufferIcE7_M_addrEv, symObjAddr: 0x65D6, symBinAddr: 0x10000742C, symSize: 0xE }
  - { offsetInCU: 0x1502D, offset: 0x1502D, size: 0x8, addend: 0x0, symName: __ZNKSt8__detail15_Hash_code_baseI4EdgeIcES2_NS_9_IdentityESt4hashIS2_ENS_18_Mod_range_hashingENS_20_Default_ranged_hashELb1EE13_M_store_codeERNS_21_Hash_node_code_cacheILb1EEEm, symObjAddr: 0x64C8, symBinAddr: 0x10000731E, symSize: 0x1E }
  - { offsetInCU: 0x15035, offset: 0x15035, size: 0x8, addend: 0x0, symName: __ZNSt10_HashtableI4EdgeIcES1_SaIS1_ENSt8__detail9_IdentityESt8equal_toIS1_ESt4hashIS1_ENS3_18_Mod_range_hashingENS3_20_Default_ranged_hashENS3_20_Prime_rehash_policyENS3_17_Hashtable_traitsILb1ELb1ELb1EEEE22_M_insert_bucket_beginEmPNS3_10_Hash_nodeIS1_Lb1EEE, symObjAddr: 0x64E6, symBinAddr: 0x10000733C, symSize: 0xF0 }
  - { offsetInCU: 0x15084, offset: 0x15084, size: 0x8, addend: 0x0, symName: __ZNSt10_HashtableI4EdgeIcES1_SaIS1_ENSt8__detail9_IdentityESt8equal_toIS1_ESt4hashIS1_ENS3_18_Mod_range_hashingENS3_20_Default_ranged_hashENS3_20_Prime_rehash_policyENS3_17_Hashtable_traitsILb1ELb1ELb1EEEE9_M_rehashEmRKm, symObjAddr: 0x645E, symBinAddr: 0x1000072B4, symSize: 0x6A }
  - { offsetInCU: 0x1508C, offset: 0x1508C, size: 0x8, addend: 0x0, symName: __ZNKSt8__detail15_Hash_code_baseI4EdgeIcES2_NS_9_IdentityESt4hashIS2_ENS_18_Mod_range_hashingENS_20_Default_ranged_hashELb1EE13_M_store_codeERNS_21_Hash_node_code_cacheILb1EEEm, symObjAddr: 0x64C8, symBinAddr: 0x10000731E, symSize: 0x1E }
  - { offsetInCU: 0x150F8, offset: 0x150F8, size: 0x8, addend: 0x0, symName: __ZNKSt8__detail10_AllocNodeISaINS_10_Hash_nodeI4EdgeIcELb1EEEEEclIJS3_EEEPS4_DpOT_, symObjAddr: 0x6428, symBinAddr: 0x10000727E, symSize: 0x36 }
  - { offsetInCU: 0x151ED, offset: 0x151ED, size: 0x8, addend: 0x0, symName: __ZSt7forwardINSt8__detail14_Node_iteratorI4EdgeIcELb1ELb1EEEEOT_RNSt16remove_referenceIS5_E4typeE, symObjAddr: 0x6419, symBinAddr: 0x10000726F, symSize: 0xF }
  - { offsetInCU: 0x1519B, offset: 0x1519B, size: 0x8, addend: 0x0, symName: __ZNKSt10_HashtableI4EdgeIcES1_SaIS1_ENSt8__detail9_IdentityESt8equal_toIS1_ESt4hashIS1_ENS3_18_Mod_range_hashingENS3_20_Default_ranged_hashENS3_20_Prime_rehash_policyENS3_17_Hashtable_traitsILb1ELb1ELb1EEEE22_M_find_before_node_trIS1_EEPNS3_15_Hash_node_baseEmRKT_m, symObjAddr: 0x6340, symBinAddr: 0x100007196, symSize: 0xD9 }
  - { offsetInCU: 0x151A3, offset: 0x151A3, size: 0x8, addend: 0x0, symName: __ZSt7forwardINSt8__detail14_Node_iteratorI4EdgeIcELb1ELb1EEEEOT_RNSt16remove_referenceIS5_E4typeE, symObjAddr: 0x6419, symBinAddr: 0x10000726F, symSize: 0xF }
  - { offsetInCU: 0x152F4, offset: 0x152F4, size: 0x8, addend: 0x0, symName: __ZSt7forwardIRNSt8__detail14_Node_iteratorI4EdgeIcELb1ELb1EEEEOT_RNSt16remove_referenceIS6_E4typeE, symObjAddr: 0x6331, symBinAddr: 0x100007187, symSize: 0xF }
  - { offsetInCU: 0x152A1, offset: 0x152A1, size: 0x8, addend: 0x0, symName: __ZNK4EdgeIcEeqERKS0_, symObjAddr: 0x6310, symBinAddr: 0x100007166, symSize: 0x21 }
  - { offsetInCU: 0x152A9, offset: 0x152A9, size: 0x8, addend: 0x0, symName: __ZSt7forwardIRNSt8__detail14_Node_iteratorI4EdgeIcELb1ELb1EEEEOT_RNSt16remove_referenceIS6_E4typeE, symObjAddr: 0x6331, symBinAddr: 0x100007187, symSize: 0xF }
  - { offsetInCU: 0x1533F, offset: 0x1533F, size: 0x8, addend: 0x0, symName: __ZSt7forwardIRK4EdgeIcEEOT_RNSt16remove_referenceIS4_E4typeE, symObjAddr: 0x6302, symBinAddr: 0x100007158, symSize: 0xE }
  - { offsetInCU: 0x15347, offset: 0x15347, size: 0x8, addend: 0x0, symName: __ZNK4EdgeIcEeqERKS0_, symObjAddr: 0x6310, symBinAddr: 0x100007166, symSize: 0x21 }
  - { offsetInCU: 0x15337, offset: 0x15337, size: 0x8, addend: 0x0, symName: __ZNKSt8__detail21_Hash_node_value_baseI4EdgeIcEE9_M_valptrEv, symObjAddr: 0x62E8, symBinAddr: 0x10000713E, symSize: 0x1A }
  - { offsetInCU: 0x1533F, offset: 0x1533F, size: 0x8, addend: 0x0, symName: __ZSt7forwardIRK4EdgeIcEEOT_RNSt16remove_referenceIS4_E4typeE, symObjAddr: 0x6302, symBinAddr: 0x100007158, symSize: 0xE }
  - { offsetInCU: 0x15366, offset: 0x15366, size: 0x8, addend: 0x0, symName: __ZNKSt8__detail21_Hashtable_ebo_helperILi0ESt8equal_toI4EdgeIcEELb1EE7_M_cgetEv, symObjAddr: 0x62DA, symBinAddr: 0x100007130, symSize: 0xE }
  - { offsetInCU: 0x1536E, offset: 0x1536E, size: 0x8, addend: 0x0, symName: __ZNKSt8__detail21_Hash_node_value_baseI4EdgeIcEE9_M_valptrEv, symObjAddr: 0x62E8, symBinAddr: 0x10000713E, symSize: 0x1A }
  - { offsetInCU: 0x153D3, offset: 0x153D3, size: 0x8, addend: 0x0, symName: __ZNSt19__ptr_traits_ptr_toIPNSt8__detail10_Hash_nodeI4EdgeIcELb1EEES4_Lb0EE10pointer_toERS4_, symObjAddr: 0x62C0, symBinAddr: 0x100007116, symSize: 0x1A }
  - { offsetInCU: 0x153DB, offset: 0x153DB, size: 0x8, addend: 0x0, symName: __ZNKSt8__detail21_Hashtable_ebo_helperILi0ESt8equal_toI4EdgeIcEELb1EE7_M_cgetEv, symObjAddr: 0x62DA, symBinAddr: 0x100007130, symSize: 0xE }
  - { offsetInCU: 0x1543A, offset: 0x1543A, size: 0x8, addend: 0x0, symName: __ZNSt10_HashtableIcSt4pairIKcSt13unordered_setI4EdgeIcESt4hashIS4_ESt8equal_toIS4_ESaIS4_EEESaISB_ENSt8__detail10_Select1stES7_IcES5_IcENSD_18_Mod_range_hashingENSD_20_Default_ranged_hashENSD_20_Prime_rehash_policyENSD_17_Hashtable_traitsILb0ELb0ELb1EEEE19_M_allocate_bucketsEm, symObjAddr: 0x6274, symBinAddr: 0x1000070CA, symSize: 0x4C }
  - { offsetInCU: 0x15442, offset: 0x15442, size: 0x8, addend: 0x0, symName: __ZNSt19__ptr_traits_ptr_toIPNSt8__detail10_Hash_nodeI4EdgeIcELb1EEES4_Lb0EE10pointer_toERS4_, symObjAddr: 0x62C0, symBinAddr: 0x100007116, symSize: 0x1A }
  - { offsetInCU: 0x15544, offset: 0x15544, size: 0x8, addend: 0x0, symName: __ZNSt5tupleIJRKcEEC1EOS2_, symObjAddr: 0x624E, symBinAddr: 0x1000070A4, symSize: 0x26 }
  - { offsetInCU: 0x1554C, offset: 0x1554C, size: 0x8, addend: 0x0, symName: __ZNSt10_HashtableIcSt4pairIKcSt13unordered_setI4EdgeIcESt4hashIS4_ESt8equal_toIS4_ESaIS4_EEESaISB_ENSt8__detail10_Select1stES7_IcES5_IcENSD_18_Mod_range_hashingENSD_20_Default_ranged_hashENSD_20_Prime_rehash_policyENSD_17_Hashtable_traitsILb0ELb0ELb1EEEE19_M_allocate_bucketsEm, symObjAddr: 0x6274, symBinAddr: 0x1000070CA, symSize: 0x4C }
  - { offsetInCU: 0x15564, offset: 0x15564, size: 0x8, addend: 0x0, symName: __ZNSt15__new_allocatorINSt8__detail10_Hash_nodeISt4pairIKcSt13unordered_setI4EdgeIcESt4hashIS6_ESt8equal_toIS6_ESaIS6_EEELb0EEEE8allocateEmPKv, symObjAddr: 0x61DC, symBinAddr: 0x100007032, symSize: 0x72 }
  - { offsetInCU: 0x155EA, offset: 0x155EA, size: 0x8, addend: 0x0, symName: __ZNKSt8__detail15_Hash_code_baseIcSt4pairIKcSt13unordered_setI4EdgeIcESt4hashIS5_ESt8equal_toIS5_ESaIS5_EEENS_10_Select1stES6_IcENS_18_Mod_range_hashingENS_20_Default_ranged_hashELb0EE15_M_bucket_indexERKNS_16_Hash_node_valueISC_Lb0EEEm, symObjAddr: 0x6180, symBinAddr: 0x100006FD6, symSize: 0x5C }
  - { offsetInCU: 0x155F2, offset: 0x155F2, size: 0x8, addend: 0x0, symName: __ZNSt15__new_allocatorINSt8__detail10_Hash_nodeISt4pairIKcSt13unordered_setI4EdgeIcESt4hashIS6_ESt8equal_toIS6_ESaIS6_EEELb0EEEE8allocateEmPKv, symObjAddr: 0x61DC, symBinAddr: 0x100007032, symSize: 0x72 }
  - { offsetInCU: 0x15641, offset: 0x15641, size: 0x8, addend: 0x0, symName: __ZNSt8__detail15_Hashtable_baseIcSt4pairIKcSt13unordered_setI4EdgeIcESt4hashIS5_ESt8equal_toIS5_ESaIS5_EEENS_10_Select1stES8_IcES6_IcENS_18_Mod_range_hashingENS_20_Default_ranged_hashENS_17_Hashtable_traitsILb0ELb0ELb1EEEE9_S_equalsEmRKNS_21_Hash_node_code_cacheILb0EEE, symObjAddr: 0x616C, symBinAddr: 0x100006FC2, symSize: 0x14 }
  - { offsetInCU: 0x15677, offset: 0x15677, size: 0x8, addend: 0x0, symName: __ZNK9__gnu_cxx16__aligned_bufferISt4pairIKcSt13unordered_setI4EdgeIcESt4hashIS5_ESt8equal_toIS5_ESaIS5_EEEE6_M_ptrEv, symObjAddr: 0x6152, symBinAddr: 0x100006FA8, symSize: 0x1A }
  - { offsetInCU: 0x1567F, offset: 0x1567F, size: 0x8, addend: 0x0, symName: __ZNSt8__detail15_Hashtable_baseIcSt4pairIKcSt13unordered_setI4EdgeIcESt4hashIS5_ESt8equal_toIS5_ESaIS5_EEENS_10_Select1stES8_IcES6_IcENS_18_Mod_range_hashingENS_20_Default_ranged_hashENS_17_Hashtable_traitsILb0ELb0ELb1EEEE9_S_equalsEmRKNS_21_Hash_node_code_cacheILb0EEE, symObjAddr: 0x616C, symBinAddr: 0x100006FC2, symSize: 0x14 }
  - { offsetInCU: 0x157E6, offset: 0x157E6, size: 0x8, addend: 0x0, symName: __ZSt11__addressofINSt8__detail10_Hash_nodeISt4pairIKcSt13unordered_setI4EdgeIcESt4hashIS6_ESt8equal_toIS6_ESaIS6_EEELb0EEEEPT_RSF_, symObjAddr: 0x6143, symBinAddr: 0x100006F99, symSize: 0xF }
  - { offsetInCU: 0x156F0, offset: 0x156F0, size: 0x8, addend: 0x0, symName: __ZNSt10_HashtableIccSaIcENSt8__detail9_IdentityESt8equal_toIcESt4hashIcENS1_18_Mod_range_hashingENS1_20_Default_ranged_hashENS1_20_Prime_rehash_policyENS1_17_Hashtable_traitsILb0ELb1ELb1EEEE21_M_insert_unique_nodeEmmPNS1_10_Hash_nodeIcLb0EEEm, symObjAddr: 0x6046, symBinAddr: 0x100006E9C, symSize: 0xFD }
  - { offsetInCU: 0x156F8, offset: 0x156F8, size: 0x8, addend: 0x0, symName: __ZSt11__addressofINSt8__detail10_Hash_nodeISt4pairIKcSt13unordered_setI4EdgeIcESt4hashIS6_ESt8equal_toIS6_ESaIS6_EEELb0EEEEPT_RSF_, symObjAddr: 0x6143, symBinAddr: 0x100006F99, symSize: 0xF }
  - { offsetInCU: 0x15894, offset: 0x15894, size: 0x8, addend: 0x0, symName: __ZNSt10_HashtableIccSaIcENSt8__detail9_IdentityESt8equal_toIcESt4hashIcENS1_18_Mod_range_hashingENS1_20_Default_ranged_hashENS1_20_Prime_rehash_policyENS1_17_Hashtable_traitsILb0ELb1ELb1EEEE12_Scoped_nodeD1Ev, symObjAddr: 0x6010, symBinAddr: 0x100006E66, symSize: 0x36 }
  - { offsetInCU: 0x1589C, offset: 0x1589C, size: 0x8, addend: 0x0, symName: __ZNSt10_HashtableIccSaIcENSt8__detail9_IdentityESt8equal_toIcESt4hashIcENS1_18_Mod_range_hashingENS1_20_Default_ranged_hashENS1_20_Prime_rehash_policyENS1_17_Hashtable_traitsILb0ELb1ELb1EEEE21_M_insert_unique_nodeEmmPNS1_10_Hash_nodeIcLb0EEEm, symObjAddr: 0x6046, symBinAddr: 0x100006E9C, symSize: 0xFD }
  - { offsetInCU: 0x15936, offset: 0x15936, size: 0x8, addend: 0x0, symName: __ZNSt10_HashtableIccSaIcENSt8__detail9_IdentityESt8equal_toIcESt4hashIcENS1_18_Mod_range_hashingENS1_20_Default_ranged_hashENS1_20_Prime_rehash_policyENS1_17_Hashtable_traitsILb0ELb1ELb1EEEE12_Scoped_nodeC1EPNS1_10_Hash_nodeIcLb0EEEPNS1_16_Hashtable_allocISaISF_EEE, symObjAddr: 0x5FE6, symBinAddr: 0x100006E3C, symSize: 0x2A }
  - { offsetInCU: 0x1593E, offset: 0x1593E, size: 0x8, addend: 0x0, symName: __ZNSt10_HashtableIccSaIcENSt8__detail9_IdentityESt8equal_toIcESt4hashIcENS1_18_Mod_range_hashingENS1_20_Default_ranged_hashENS1_20_Prime_rehash_policyENS1_17_Hashtable_traitsILb0ELb1ELb1EEEE12_Scoped_nodeD1Ev, symObjAddr: 0x6010, symBinAddr: 0x100006E66, symSize: 0x36 }
  - { offsetInCU: 0x1587C, offset: 0x1587C, size: 0x8, addend: 0x0, symName: __ZNSt8__detail12_NodeBuilderINS_9_IdentityEE8_S_buildIRKcS5_NS_10_AllocNodeISaINS_10_Hash_nodeIcLb0EEEEEEEEPNT1_11__node_typeEOT_OT0_RKSB_, symObjAddr: 0x5FB1, symBinAddr: 0x100006E07, symSize: 0x35 }
  - { offsetInCU: 0x15992, offset: 0x15992, size: 0x8, addend: 0x0, symName: __ZNSt4pairINSt8__detail14_Node_iteratorIcLb1ELb0EEEbEC1IS2_bLb1EEEOT_OT0_, symObjAddr: 0x5F6E, symBinAddr: 0x100006DC4, symSize: 0x43 }
  - { offsetInCU: 0x1599A, offset: 0x1599A, size: 0x8, addend: 0x0, symName: __ZNSt8__detail12_NodeBuilderINS_9_IdentityEE8_S_buildIRKcS5_NS_10_AllocNodeISaINS_10_Hash_nodeIcLb0EEEEEEEEPNT1_11__node_typeEOT_OT0_RKSB_, symObjAddr: 0x5FB1, symBinAddr: 0x100006E07, symSize: 0x35 }
  - { offsetInCU: 0x159A8, offset: 0x159A8, size: 0x8, addend: 0x0, symName: __ZNKSt10_HashtableIccSaIcENSt8__detail9_IdentityESt8equal_toIcESt4hashIcENS1_18_Mod_range_hashingENS1_20_Default_ranged_hashENS1_20_Prime_rehash_policyENS1_17_Hashtable_traitsILb0ELb1ELb1EEEE15_M_find_node_trIcEEPNS1_10_Hash_nodeIcLb0EEEmRKT_m, symObjAddr: 0x5F22, symBinAddr: 0x100006D78, symSize: 0x4C }
  - { offsetInCU: 0x15A34, offset: 0x15A34, size: 0x8, addend: 0x0, symName: __ZNKSt8__detail15_Hash_code_baseIccNS_9_IdentityESt4hashIcENS_18_Mod_range_hashingENS_20_Default_ranged_hashELb0EE15_M_hash_code_trIcEEmRKT_, symObjAddr: 0x5EEC, symBinAddr: 0x100006D42, symSize: 0x36 }
  - { offsetInCU: 0x15B24, offset: 0x15B24, size: 0x8, addend: 0x0, symName: __ZNSt4pairINSt8__detail14_Node_iteratorIcLb1ELb0EEEbEC1IRS2_bLb1EEEOT_OT0_, symObjAddr: 0x5EA8, symBinAddr: 0x100006CFE, symSize: 0x44 }
  - { offsetInCU: 0x15B39, offset: 0x15B39, size: 0x8, addend: 0x0, symName: __ZNKSt8__detail15_Hashtable_baseIccNS_9_IdentityESt8equal_toIcESt4hashIcENS_18_Mod_range_hashingENS_20_Default_ranged_hashENS_17_Hashtable_traitsILb0ELb1ELb1EEEE16_M_key_equals_trIcEEbRKT_RKNS_16_Hash_node_valueIcLb0EEE, symObjAddr: 0x5E4E, symBinAddr: 0x100006CA4, symSize: 0x5A }
  - { offsetInCU: 0x15B41, offset: 0x15B41, size: 0x8, addend: 0x0, symName: __ZNSt4pairINSt8__detail14_Node_iteratorIcLb1ELb0EEEbEC1IRS2_bLb1EEEOT_OT0_, symObjAddr: 0x5EA8, symBinAddr: 0x100006CFE, symSize: 0x44 }
  - { offsetInCU: 0x15B9E, offset: 0x15B9E, size: 0x8, addend: 0x0, symName: __ZNKSt8__detail15_Hash_code_baseIccNS_9_IdentityESt4hashIcENS_18_Mod_range_hashingENS_20_Default_ranged_hashELb0EE15_M_bucket_indexERKNS_16_Hash_node_valueIcLb0EEEm, symObjAddr: 0x5DF2, symBinAddr: 0x100006C48, symSize: 0x5C }
  - { offsetInCU: 0x15BA6, offset: 0x15BA6, size: 0x8, addend: 0x0, symName: __ZNKSt8__detail15_Hashtable_baseIccNS_9_IdentityESt8equal_toIcESt4hashIcENS_18_Mod_range_hashingENS_20_Default_ranged_hashENS_17_Hashtable_traitsILb0ELb1ELb1EEEE16_M_key_equals_trIcEEbRKT_RKNS_16_Hash_node_valueIcLb0EEE, symObjAddr: 0x5E4E, symBinAddr: 0x100006CA4, symSize: 0x5A }
  - { offsetInCU: 0x15BF5, offset: 0x15BF5, size: 0x8, addend: 0x0, symName: __ZNSt8__detail15_Hashtable_baseIccNS_9_IdentityESt8equal_toIcESt4hashIcENS_18_Mod_range_hashingENS_20_Default_ranged_hashENS_17_Hashtable_traitsILb0ELb1ELb1EEEE9_S_equalsEmRKNS_21_Hash_node_code_cacheILb0EEE, symObjAddr: 0x5DDE, symBinAddr: 0x100006C34, symSize: 0x14 }
  - { offsetInCU: 0x15C2B, offset: 0x15C2B, size: 0x8, addend: 0x0, symName: __ZNK9__gnu_cxx16__aligned_bufferIcE6_M_ptrEv, symObjAddr: 0x5DC4, symBinAddr: 0x100006C1A, symSize: 0x1A }
  - { offsetInCU: 0x15C33, offset: 0x15C33, size: 0x8, addend: 0x0, symName: __ZNSt8__detail15_Hashtable_baseIccNS_9_IdentityESt8equal_toIcESt4hashIcENS_18_Mod_range_hashingENS_20_Default_ranged_hashENS_17_Hashtable_traitsILb0ELb1ELb1EEEE9_S_equalsEmRKNS_21_Hash_node_code_cacheILb0EEE, symObjAddr: 0x5DDE, symBinAddr: 0x100006C34, symSize: 0x14 }
  - { offsetInCU: 0x15C5A, offset: 0x15C5A, size: 0x8, addend: 0x0, symName: __ZNSt15__new_allocatorIcE8allocateEmPKv, symObjAddr: 0x5D76, symBinAddr: 0x100006BCC, symSize: 0x4E }
  - { offsetInCU: 0x15C62, offset: 0x15C62, size: 0x8, addend: 0x0, symName: __ZNK9__gnu_cxx16__aligned_bufferIcE6_M_ptrEv, symObjAddr: 0x5DC4, symBinAddr: 0x100006C1A, symSize: 0x1A }
  - { offsetInCU: 0x15D2A, offset: 0x15D2A, size: 0x8, addend: 0x0, symName: __ZSt13copy_backwardIPPcS1_ET0_T_S3_S2_, symObjAddr: 0x5D2B, symBinAddr: 0x100006B81, symSize: 0x4B }
  - { offsetInCU: 0x15D32, offset: 0x15D32, size: 0x8, addend: 0x0, symName: __ZNSt15__new_allocatorIcE8allocateEmPKv, symObjAddr: 0x5D76, symBinAddr: 0x100006BCC, symSize: 0x4E }
  - { offsetInCU: 0x15D98, offset: 0x15D98, size: 0x8, addend: 0x0, symName: __ZSt4copyIPPcS1_ET0_T_S3_S2_, symObjAddr: 0x5CE0, symBinAddr: 0x100006B36, symSize: 0x4B }
  - { offsetInCU: 0x15DA0, offset: 0x15DA0, size: 0x8, addend: 0x0, symName: __ZSt13copy_backwardIPPcS1_ET0_T_S3_S2_, symObjAddr: 0x5D2B, symBinAddr: 0x100006B81, symSize: 0x4B }
  - { offsetInCU: 0x15E3C, offset: 0x15E3C, size: 0x8, addend: 0x0, symName: __ZNSt19__ptr_traits_ptr_toIPNSt8__detail10_Hash_nodeIcLb0EEES2_Lb0EE10pointer_toERS2_, symObjAddr: 0x5CC6, symBinAddr: 0x100006B1C, symSize: 0x1A }
  - { offsetInCU: 0x15E44, offset: 0x15E44, size: 0x8, addend: 0x0, symName: __ZSt4copyIPPcS1_ET0_T_S3_S2_, symObjAddr: 0x5CE0, symBinAddr: 0x100006B36, symSize: 0x4B }
  - { offsetInCU: 0x15EA3, offset: 0x15EA3, size: 0x8, addend: 0x0, symName: __ZN9__gnu_cxx16__aligned_bufferIcE6_M_ptrEv, symObjAddr: 0x5CAC, symBinAddr: 0x100006B02, symSize: 0x1A }
  - { offsetInCU: 0x15EAB, offset: 0x15EAB, size: 0x8, addend: 0x0, symName: __ZNSt19__ptr_traits_ptr_toIPNSt8__detail10_Hash_nodeIcLb0EEES2_Lb0EE10pointer_toERS2_, symObjAddr: 0x5CC6, symBinAddr: 0x100006B1C, symSize: 0x1A }
  - { offsetInCU: 0x15ED2, offset: 0x15ED2, size: 0x8, addend: 0x0, symName: __ZNSt8__detail21_Hashtable_ebo_helperILi0ESaINS_10_Hash_nodeIcLb0EEEELb1EE6_M_getEv, symObjAddr: 0x5C9E, symBinAddr: 0x100006AF4, symSize: 0xE }
  - { offsetInCU: 0x15EDA, offset: 0x15EDA, size: 0x8, addend: 0x0, symName: __ZN9__gnu_cxx16__aligned_bufferIcE6_M_ptrEv, symObjAddr: 0x5CAC, symBinAddr: 0x100006B02, symSize: 0x1A }
  - { offsetInCU: 0x15F1A, offset: 0x15F1A, size: 0x8, addend: 0x0, symName: __ZNSt15__new_allocatorIcE10deallocateEPcm, symObjAddr: 0x5C74, symBinAddr: 0x100006ACA, symSize: 0x2A }
  - { offsetInCU: 0x15F6F, offset: 0x15F6F, size: 0x8, addend: 0x0, symName: __ZNSt15__new_allocatorIPcE8allocateEmPKv, symObjAddr: 0x5C0C, symBinAddr: 0x100006A62, symSize: 0x68 }
  - { offsetInCU: 0x15FF5, offset: 0x15FF5, size: 0x8, addend: 0x0, symName: __ZNSt10_HashtableI4EdgeIcES1_SaIS1_ENSt8__detail9_IdentityESt8equal_toIS1_ESt4hashIS1_ENS3_18_Mod_range_hashingENS3_20_Default_ranged_hashENS3_20_Prime_rehash_policyENS3_17_Hashtable_traitsILb1ELb1ELb1EEEE21_M_insert_unique_nodeEmmPNS3_10_Hash_nodeIS1_Lb1EEEm, symObjAddr: 0x5B0E, symBinAddr: 0x100006964, symSize: 0xFE }
  - { offsetInCU: 0x161A8, offset: 0x161A8, size: 0x8, addend: 0x0, symName: __ZNSt10_HashtableI4EdgeIcES1_SaIS1_ENSt8__detail9_IdentityESt8equal_toIS1_ESt4hashIS1_ENS3_18_Mod_range_hashingENS3_20_Default_ranged_hashENS3_20_Prime_rehash_policyENS3_17_Hashtable_traitsILb1ELb1ELb1EEEE12_Scoped_nodeD1Ev, symObjAddr: 0x5AD8, symBinAddr: 0x10000692E, symSize: 0x36 }
  - { offsetInCU: 0x161B0, offset: 0x161B0, size: 0x8, addend: 0x0, symName: __ZNSt10_HashtableI4EdgeIcES1_SaIS1_ENSt8__detail9_IdentityESt8equal_toIS1_ESt4hashIS1_ENS3_18_Mod_range_hashingENS3_20_Default_ranged_hashENS3_20_Prime_rehash_policyENS3_17_Hashtable_traitsILb1ELb1ELb1EEEE21_M_insert_unique_nodeEmmPNS3_10_Hash_nodeIS1_Lb1EEEm, symObjAddr: 0x5B0E, symBinAddr: 0x100006964, symSize: 0xFE }
  - { offsetInCU: 0x1624C, offset: 0x1624C, size: 0x8, addend: 0x0, symName: __ZNSt10_HashtableI4EdgeIcES1_SaIS1_ENSt8__detail9_IdentityESt8equal_toIS1_ESt4hashIS1_ENS3_18_Mod_range_hashingENS3_20_Default_ranged_hashENS3_20_Prime_rehash_policyENS3_17_Hashtable_traitsILb1ELb1ELb1EEEE12_Scoped_nodeC1EPNS3_10_Hash_nodeIS1_Lb1EEEPNS3_16_Hashtable_allocISaISH_EEE, symObjAddr: 0x5AAE, symBinAddr: 0x100006904, symSize: 0x2A }
  - { offsetInCU: 0x16254, offset: 0x16254, size: 0x8, addend: 0x0, symName: __ZNSt10_HashtableI4EdgeIcES1_SaIS1_ENSt8__detail9_IdentityESt8equal_toIS1_ESt4hashIS1_ENS3_18_Mod_range_hashingENS3_20_Default_ranged_hashENS3_20_Prime_rehash_policyENS3_17_Hashtable_traitsILb1ELb1ELb1EEEE12_Scoped_nodeD1Ev, symObjAddr: 0x5AD8, symBinAddr: 0x10000692E, symSize: 0x36 }
  - { offsetInCU: 0x16181, offset: 0x16181, size: 0x8, addend: 0x0, symName: __ZNSt8__detail12_NodeBuilderINS_9_IdentityEE8_S_buildI4EdgeIcES5_NS_10_AllocNodeISaINS_10_Hash_nodeIS5_Lb1EEEEEEEEPNT1_11__node_typeEOT_OT0_RKSB_, symObjAddr: 0x5A79, symBinAddr: 0x1000068CF, symSize: 0x35 }
  - { offsetInCU: 0x1629E, offset: 0x1629E, size: 0x8, addend: 0x0, symName: __ZNSt4pairINSt8__detail14_Node_iteratorI4EdgeIcELb1ELb1EEEbEC1IS4_bLb1EEEOT_OT0_, symObjAddr: 0x5A36, symBinAddr: 0x10000688C, symSize: 0x43 }
  - { offsetInCU: 0x162A6, offset: 0x162A6, size: 0x8, addend: 0x0, symName: __ZNSt8__detail12_NodeBuilderINS_9_IdentityEE8_S_buildI4EdgeIcES5_NS_10_AllocNodeISaINS_10_Hash_nodeIS5_Lb1EEEEEEEEPNT1_11__node_typeEOT_OT0_RKSB_, symObjAddr: 0x5A79, symBinAddr: 0x1000068CF, symSize: 0x35 }
  - { offsetInCU: 0x162AD, offset: 0x162AD, size: 0x8, addend: 0x0, symName: __ZNKSt10_HashtableI4EdgeIcES1_SaIS1_ENSt8__detail9_IdentityESt8equal_toIS1_ESt4hashIS1_ENS3_18_Mod_range_hashingENS3_20_Default_ranged_hashENS3_20_Prime_rehash_policyENS3_17_Hashtable_traitsILb1ELb1ELb1EEEE15_M_find_node_trIS1_EEPNS3_10_Hash_nodeIS1_Lb1EEEmRKT_m, symObjAddr: 0x59EA, symBinAddr: 0x100006840, symSize: 0x4C }
  - { offsetInCU: 0x16339, offset: 0x16339, size: 0x8, addend: 0x0, symName: __ZNKSt8__detail15_Hash_code_baseI4EdgeIcES2_NS_9_IdentityESt4hashIS2_ENS_18_Mod_range_hashingENS_20_Default_ranged_hashELb1EE15_M_hash_code_trIS2_EEmRKT_, symObjAddr: 0x59BA, symBinAddr: 0x100006810, symSize: 0x30 }
  - { offsetInCU: 0x16341, offset: 0x16341, size: 0x8, addend: 0x0, symName: __ZNKSt10_HashtableI4EdgeIcES1_SaIS1_ENSt8__detail9_IdentityESt8equal_toIS1_ESt4hashIS1_ENS3_18_Mod_range_hashingENS3_20_Default_ranged_hashENS3_20_Prime_rehash_policyENS3_17_Hashtable_traitsILb1ELb1ELb1EEEE15_M_find_node_trIS1_EEPNS3_10_Hash_nodeIS1_Lb1EEEmRKT_m, symObjAddr: 0x59EA, symBinAddr: 0x100006840, symSize: 0x4C }
  - { offsetInCU: 0x16430, offset: 0x16430, size: 0x8, addend: 0x0, symName: __ZNSt4pairINSt8__detail14_Node_iteratorI4EdgeIcELb1ELb1EEEbEC1IRS4_bLb1EEEOT_OT0_, symObjAddr: 0x5976, symBinAddr: 0x1000067CC, symSize: 0x44 }
  - { offsetInCU: 0x1643E, offset: 0x1643E, size: 0x8, addend: 0x0, symName: __ZNKSt8__detail15_Hashtable_baseI4EdgeIcES2_NS_9_IdentityESt8equal_toIS2_ESt4hashIS2_ENS_18_Mod_range_hashingENS_20_Default_ranged_hashENS_17_Hashtable_traitsILb1ELb1ELb1EEEE16_M_key_equals_trIS2_EEbRKT_RKNS_16_Hash_node_valueIS2_Lb1EEE, symObjAddr: 0x591C, symBinAddr: 0x100006772, symSize: 0x5A }
  - { offsetInCU: 0x16446, offset: 0x16446, size: 0x8, addend: 0x0, symName: __ZNSt4pairINSt8__detail14_Node_iteratorI4EdgeIcELb1ELb1EEEbEC1IRS4_bLb1EEEOT_OT0_, symObjAddr: 0x5976, symBinAddr: 0x1000067CC, symSize: 0x44 }
  - { offsetInCU: 0x164A3, offset: 0x164A3, size: 0x8, addend: 0x0, symName: __ZNSt8__detail15_Hashtable_baseI4EdgeIcES2_NS_9_IdentityESt8equal_toIS2_ESt4hashIS2_ENS_18_Mod_range_hashingENS_20_Default_ranged_hashENS_17_Hashtable_traitsILb1ELb1ELb1EEEE9_S_equalsEmRKNS_21_Hash_node_code_cacheILb1EEE, symObjAddr: 0x5900, symBinAddr: 0x100006756, symSize: 0x1C }
  - { offsetInCU: 0x164AB, offset: 0x164AB, size: 0x8, addend: 0x0, symName: __ZNKSt8__detail15_Hashtable_baseI4EdgeIcES2_NS_9_IdentityESt8equal_toIS2_ESt4hashIS2_ENS_18_Mod_range_hashingENS_20_Default_ranged_hashENS_17_Hashtable_traitsILb1ELb1ELb1EEEE16_M_key_equals_trIS2_EEbRKT_RKNS_16_Hash_node_valueIS2_Lb1EEE, symObjAddr: 0x591C, symBinAddr: 0x100006772, symSize: 0x5A }
  - { offsetInCU: 0x164E9, offset: 0x164E9, size: 0x8, addend: 0x0, symName: __ZNKSt8__detail21_Hashtable_ebo_helperILi1ESt4hashI4EdgeIcEELb1EE7_M_cgetEv, symObjAddr: 0x58F2, symBinAddr: 0x100006748, symSize: 0xE }
  - { offsetInCU: 0x164F1, offset: 0x164F1, size: 0x8, addend: 0x0, symName: __ZNSt8__detail15_Hashtable_baseI4EdgeIcES2_NS_9_IdentityESt8equal_toIS2_ESt4hashIS2_ENS_18_Mod_range_hashingENS_20_Default_ranged_hashENS_17_Hashtable_traitsILb1ELb1ELb1EEEE9_S_equalsEmRKNS_21_Hash_node_code_cacheILb1EEE, symObjAddr: 0x5900, symBinAddr: 0x100006756, symSize: 0x1C }
  - { offsetInCU: 0x16518, offset: 0x16518, size: 0x8, addend: 0x0, symName: __ZNKSt8equal_toI4EdgeIcEEclERKS1_S4_, symObjAddr: 0x58C8, symBinAddr: 0x10000671E, symSize: 0x2A }
  - { offsetInCU: 0x16582, offset: 0x16582, size: 0x8, addend: 0x0, symName: __ZNKSt8__detail9_IdentityclIRK4EdgeIcEEEOT_S7_, symObjAddr: 0x58AA, symBinAddr: 0x100006700, symSize: 0x1E }
  - { offsetInCU: 0x1658A, offset: 0x1658A, size: 0x8, addend: 0x0, symName: __ZNKSt8equal_toI4EdgeIcEEclERKS1_S4_, symObjAddr: 0x58C8, symBinAddr: 0x10000671E, symSize: 0x2A }
  - { offsetInCU: 0x165D1, offset: 0x165D1, size: 0x8, addend: 0x0, symName: __ZNKSt8__detail21_Hash_node_value_baseI4EdgeIcEE4_M_vEv, symObjAddr: 0x5890, symBinAddr: 0x1000066E6, symSize: 0x1A }
  - { offsetInCU: 0x165D9, offset: 0x165D9, size: 0x8, addend: 0x0, symName: __ZNKSt8__detail9_IdentityclIRK4EdgeIcEEEOT_S7_, symObjAddr: 0x58AA, symBinAddr: 0x100006700, symSize: 0x1E }
  - { offsetInCU: 0x16600, offset: 0x16600, size: 0x8, addend: 0x0, symName: __ZNKSt8__detail15_Hashtable_baseI4EdgeIcES2_NS_9_IdentityESt8equal_toIS2_ESt4hashIS2_ENS_18_Mod_range_hashingENS_20_Default_ranged_hashENS_17_Hashtable_traitsILb1ELb1ELb1EEEE5_M_eqEv, symObjAddr: 0x5876, symBinAddr: 0x1000066CC, symSize: 0x1A }
  - { offsetInCU: 0x16608, offset: 0x16608, size: 0x8, addend: 0x0, symName: __ZNKSt8__detail21_Hash_node_value_baseI4EdgeIcEE4_M_vEv, symObjAddr: 0x5890, symBinAddr: 0x1000066E6, symSize: 0x1A }
  - { offsetInCU: 0x1665E, offset: 0x1665E, size: 0x8, addend: 0x0, symName: __ZNSt8__detail16_Hashtable_allocISaINS_10_Hash_nodeI4EdgeIcELb1EEEEE22_M_deallocate_node_ptrEPS4_, symObjAddr: 0x581A, symBinAddr: 0x100006670, symSize: 0x5C }
  - { offsetInCU: 0x1672D, offset: 0x1672D, size: 0x8, addend: 0x0, symName: __ZNSt10_HashtableIcSt4pairIKcSt13unordered_setI4EdgeIcESt4hashIS4_ESt8equal_toIS4_ESaIS4_EEESaISB_ENSt8__detail10_Select1stES7_IcES5_IcENSD_18_Mod_range_hashingENSD_20_Default_ranged_hashENSD_20_Prime_rehash_policyENSD_17_Hashtable_traitsILb0ELb0ELb1EEEE13_M_rehash_auxEmSt17integral_constantIbLb1EE, symObjAddr: 0x56A0, symBinAddr: 0x1000064F6, symSize: 0x17A }
  - { offsetInCU: 0x169B1, offset: 0x169B1, size: 0x8, addend: 0x0, symName: __ZSt12__to_addressINSt8__detail10_Hash_nodeISt4pairIKcSt13unordered_setI4EdgeIcESt4hashIS6_ESt8equal_toIS6_ESaIS6_EEELb0EEEEPT_SG_, symObjAddr: 0x5692, symBinAddr: 0x1000064E8, symSize: 0xE }
  - { offsetInCU: 0x169B9, offset: 0x169B9, size: 0x8, addend: 0x0, symName: __ZNSt10_HashtableIcSt4pairIKcSt13unordered_setI4EdgeIcESt4hashIS4_ESt8equal_toIS4_ESaIS4_EEESaISB_ENSt8__detail10_Select1stES7_IcES5_IcENSD_18_Mod_range_hashingENSD_20_Default_ranged_hashENSD_20_Prime_rehash_policyENSD_17_Hashtable_traitsILb0ELb0ELb1EEEE13_M_rehash_auxEmSt17integral_constantIbLb1EE, symObjAddr: 0x56A0, symBinAddr: 0x1000064F6, symSize: 0x17A }
  - { offsetInCU: 0x16935, offset: 0x16935, size: 0x8, addend: 0x0, symName: __ZNSt10_Head_baseILm0ERKcLb0EEC2ES1_, symObjAddr: 0x5678, symBinAddr: 0x1000064CE, symSize: 0x1A }
  - { offsetInCU: 0x1693D, offset: 0x1693D, size: 0x8, addend: 0x0, symName: __ZSt12__to_addressINSt8__detail10_Hash_nodeISt4pairIKcSt13unordered_setI4EdgeIcESt4hashIS6_ESt8equal_toIS6_ESaIS6_EEELb0EEEEPT_SG_, symObjAddr: 0x5692, symBinAddr: 0x1000064E8, symSize: 0xE }
  - { offsetInCU: 0x1694A, offset: 0x1694A, size: 0x8, addend: 0x0, symName: __ZNKSt10_HashtableIcSt4pairIKcSt13unordered_setI4EdgeIcESt4hashIS4_ESt8equal_toIS4_ESaIS4_EEESaISB_ENSt8__detail10_Select1stES7_IcES5_IcENSD_18_Mod_range_hashingENSD_20_Default_ranged_hashENSD_20_Prime_rehash_policyENSD_17_Hashtable_traitsILb0ELb0ELb1EEEE15_M_bucket_indexERKNSD_16_Hash_node_valueISB_Lb0EEE, symObjAddr: 0x564A, symBinAddr: 0x1000064A0, symSize: 0x2E }
  - { offsetInCU: 0x1698D, offset: 0x1698D, size: 0x8, addend: 0x0, symName: __ZNKSt8__detail15_Hashtable_baseIcSt4pairIKcSt13unordered_setI4EdgeIcESt4hashIS5_ESt8equal_toIS5_ESaIS5_EEENS_10_Select1stES8_IcES6_IcENS_18_Mod_range_hashingENS_20_Default_ranged_hashENS_17_Hashtable_traitsILb0ELb0ELb1EEEE9_M_equalsERS2_mRKNS_16_Hash_node_valueISC_Lb0EEE, symObjAddr: 0x55F2, symBinAddr: 0x100006448, symSize: 0x58 }
  - { offsetInCU: 0x16995, offset: 0x16995, size: 0x8, addend: 0x0, symName: __ZNKSt10_HashtableIcSt4pairIKcSt13unordered_setI4EdgeIcESt4hashIS4_ESt8equal_toIS4_ESaIS4_EEESaISB_ENSt8__detail10_Select1stES7_IcES5_IcENSD_18_Mod_range_hashingENSD_20_Default_ranged_hashENSD_20_Prime_rehash_policyENSD_17_Hashtable_traitsILb0ELb0ELb1EEEE15_M_bucket_indexERKNSD_16_Hash_node_valueISB_Lb0EEE, symObjAddr: 0x564A, symBinAddr: 0x1000064A0, symSize: 0x2E }
  - { offsetInCU: 0x16B13, offset: 0x16B13, size: 0x8, addend: 0x0, symName: __ZSt7forwardIRKSt4pairIKcSt13unordered_setI4EdgeIcESt4hashIS4_ESt8equal_toIS4_ESaIS4_EEEEOT_RNSt16remove_referenceISE_E4typeE, symObjAddr: 0x55E4, symBinAddr: 0x10000643A, symSize: 0xE }
  - { offsetInCU: 0x16B1B, offset: 0x16B1B, size: 0x8, addend: 0x0, symName: __ZNKSt8__detail15_Hashtable_baseIcSt4pairIKcSt13unordered_setI4EdgeIcESt4hashIS5_ESt8equal_toIS5_ESaIS5_EEENS_10_Select1stES8_IcES6_IcENS_18_Mod_range_hashingENS_20_Default_ranged_hashENS_17_Hashtable_traitsILb0ELb0ELb1EEEE9_M_equalsERS2_mRKNS_16_Hash_node_valueISC_Lb0EEE, symObjAddr: 0x55F2, symBinAddr: 0x100006448, symSize: 0x58 }
  - { offsetInCU: 0x16A4C, offset: 0x16A4C, size: 0x8, addend: 0x0, symName: __ZNKSt8__detail21_Hash_node_value_baseISt4pairIKcSt13unordered_setI4EdgeIcESt4hashIS5_ESt8equal_toIS5_ESaIS5_EEEE9_M_valptrEv, symObjAddr: 0x55CA, symBinAddr: 0x100006420, symSize: 0x1A }
  - { offsetInCU: 0x16A54, offset: 0x16A54, size: 0x8, addend: 0x0, symName: __ZSt7forwardIRKSt4pairIKcSt13unordered_setI4EdgeIcESt4hashIS4_ESt8equal_toIS4_ESaIS4_EEEEOT_RNSt16remove_referenceISE_E4typeE, symObjAddr: 0x55E4, symBinAddr: 0x10000643A, symSize: 0xE }
  - { offsetInCU: 0x16AE6, offset: 0x16AE6, size: 0x8, addend: 0x0, symName: __ZSt11__addressofIPNSt8__detail15_Hash_node_baseEEPT_RS3_, symObjAddr: 0x55BC, symBinAddr: 0x100006412, symSize: 0xE }
  - { offsetInCU: 0x16AEE, offset: 0x16AEE, size: 0x8, addend: 0x0, symName: __ZNKSt8__detail21_Hash_node_value_baseISt4pairIKcSt13unordered_setI4EdgeIcESt4hashIS5_ESt8equal_toIS5_ESaIS5_EEEE9_M_valptrEv, symObjAddr: 0x55CA, symBinAddr: 0x100006420, symSize: 0x1A }
  - { offsetInCU: 0x16AC5, offset: 0x16AC5, size: 0x8, addend: 0x0, symName: __ZNSt15__new_allocatorINSt8__detail10_Hash_nodeISt4pairIKcSt13unordered_setI4EdgeIcESt4hashIS6_ESt8equal_toIS6_ESaIS6_EEELb0EEEE10deallocateEPSE_m, symObjAddr: 0x5582, symBinAddr: 0x1000063D8, symSize: 0x3A }
  - { offsetInCU: 0x16ACD, offset: 0x16ACD, size: 0x8, addend: 0x0, symName: __ZSt11__addressofIPNSt8__detail15_Hash_node_baseEEPT_RS3_, symObjAddr: 0x55BC, symBinAddr: 0x100006412, symSize: 0xE }
  - { offsetInCU: 0x16C55, offset: 0x16C55, size: 0x8, addend: 0x0, symName: __ZSt9addressofINSt8__detail10_Hash_nodeISt4pairIKcSt13unordered_setI4EdgeIcESt4hashIS6_ESt8equal_toIS6_ESaIS6_EEELb0EEEEPT_RSF_, symObjAddr: 0x5568, symBinAddr: 0x1000063BE, symSize: 0x1A }
  - { offsetInCU: 0x16C5D, offset: 0x16C5D, size: 0x8, addend: 0x0, symName: __ZNSt15__new_allocatorINSt8__detail10_Hash_nodeISt4pairIKcSt13unordered_setI4EdgeIcESt4hashIS6_ESt8equal_toIS6_ESaIS6_EEELb0EEEE10deallocateEPSE_m, symObjAddr: 0x5582, symBinAddr: 0x1000063D8, symSize: 0x3A }
  - { offsetInCU: 0x16B68, offset: 0x16B68, size: 0x8, addend: 0x0, symName: __ZN9__gnu_cxx16__aligned_bufferISt4pairIKcSt13unordered_setI4EdgeIcESt4hashIS5_ESt8equal_toIS5_ESaIS5_EEEE7_M_addrEv, symObjAddr: 0x555A, symBinAddr: 0x1000063B0, symSize: 0xE }
  - { offsetInCU: 0x16B70, offset: 0x16B70, size: 0x8, addend: 0x0, symName: __ZSt9addressofINSt8__detail10_Hash_nodeISt4pairIKcSt13unordered_setI4EdgeIcESt4hashIS6_ESt8equal_toIS6_ESaIS6_EEELb0EEEEPT_RSF_, symObjAddr: 0x5568, symBinAddr: 0x1000063BE, symSize: 0x1A }
  - { offsetInCU: 0x16B9B, offset: 0x16B9B, size: 0x8, addend: 0x0, symName: __ZNSt15_Deque_iteratorIcRcPcEmmEv, symObjAddr: 0x54F8, symBinAddr: 0x10000634E, symSize: 0x62 }
  - { offsetInCU: 0x16BA3, offset: 0x16BA3, size: 0x8, addend: 0x0, symName: __ZN9__gnu_cxx16__aligned_bufferISt4pairIKcSt13unordered_setI4EdgeIcESt4hashIS5_ESt8equal_toIS5_ESaIS5_EEEE7_M_addrEv, symObjAddr: 0x555A, symBinAddr: 0x1000063B0, symSize: 0xE }
  - { offsetInCU: 0x16C21, offset: 0x16C21, size: 0x8, addend: 0x0, symName: __ZN9__gnu_cxx16__aligned_bufferI4EdgeIcEE7_M_addrEv, symObjAddr: 0x54EA, symBinAddr: 0x100006340, symSize: 0xE }
  - { offsetInCU: 0x16C29, offset: 0x16C29, size: 0x8, addend: 0x0, symName: __ZNSt15_Deque_iteratorIcRcPcEmmEv, symObjAddr: 0x54F8, symBinAddr: 0x10000634E, symSize: 0x62 }
  - { offsetInCU: 0x16C54, offset: 0x16C54, size: 0x8, addend: 0x0, symName: __ZNSt10_HashtableIccSaIcENSt8__detail9_IdentityESt8equal_toIcESt4hashIcENS1_18_Mod_range_hashingENS1_20_Default_ranged_hashENS1_20_Prime_rehash_policyENS1_17_Hashtable_traitsILb0ELb1ELb1EEEE16_M_insert_uniqueIRKcSF_NS1_10_AllocNodeISaINS1_10_Hash_nodeIcLb0EEEEEEEESt4pairINS1_14_Node_iteratorIcLb1ELb0EEEbEOT_OT0_RKT1_, symObjAddr: 0x5236, symBinAddr: 0x10000608C, symSize: 0x2B4 }
  - { offsetInCU: 0x16C5C, offset: 0x16C5C, size: 0x8, addend: 0x0, symName: __ZN9__gnu_cxx16__aligned_bufferI4EdgeIcEE7_M_addrEv, symObjAddr: 0x54EA, symBinAddr: 0x100006340, symSize: 0xE }
  - { offsetInCU: 0x16D8A, offset: 0x16D8A, size: 0x8, addend: 0x0, symName: __ZNSt10_HashtableIccSaIcENSt8__detail9_IdentityESt8equal_toIcESt4hashIcENS1_18_Mod_range_hashingENS1_20_Default_ranged_hashENS1_20_Prime_rehash_policyENS1_17_Hashtable_traitsILb0ELb1ELb1EEEE14_S_forward_keyERKc, symObjAddr: 0x5227, symBinAddr: 0x10000607D, symSize: 0xF }
  - { offsetInCU: 0x16DBC, offset: 0x16DBC, size: 0x8, addend: 0x0, symName: __ZNKSt10_HashtableIccSaIcENSt8__detail9_IdentityESt8equal_toIcESt4hashIcENS1_18_Mod_range_hashingENS1_20_Default_ranged_hashENS1_20_Prime_rehash_policyENS1_17_Hashtable_traitsILb0ELb1ELb1EEEE15_M_bucket_indexERKNS1_16_Hash_node_valueIcLb0EEE, symObjAddr: 0x51FA, symBinAddr: 0x100006050, symSize: 0x2D }
  - { offsetInCU: 0x16DC4, offset: 0x16DC4, size: 0x8, addend: 0x0, symName: __ZNSt10_HashtableIccSaIcENSt8__detail9_IdentityESt8equal_toIcESt4hashIcENS1_18_Mod_range_hashingENS1_20_Default_ranged_hashENS1_20_Prime_rehash_policyENS1_17_Hashtable_traitsILb0ELb1ELb1EEEE14_S_forward_keyERKc, symObjAddr: 0x5227, symBinAddr: 0x10000607D, symSize: 0xF }
  - { offsetInCU: 0x16DFF, offset: 0x16DFF, size: 0x8, addend: 0x0, symName: __ZNKSt8__detail15_Hashtable_baseIccNS_9_IdentityESt8equal_toIcESt4hashIcENS_18_Mod_range_hashingENS_20_Default_ranged_hashENS_17_Hashtable_traitsILb0ELb1ELb1EEEE9_M_equalsERKcmRKNS_16_Hash_node_valueIcLb0EEE, symObjAddr: 0x51A2, symBinAddr: 0x100005FF8, symSize: 0x58 }
  - { offsetInCU: 0x16E07, offset: 0x16E07, size: 0x8, addend: 0x0, symName: __ZNKSt10_HashtableIccSaIcENSt8__detail9_IdentityESt8equal_toIcESt4hashIcENS1_18_Mod_range_hashingENS1_20_Default_ranged_hashENS1_20_Prime_rehash_policyENS1_17_Hashtable_traitsILb0ELb1ELb1EEEE15_M_bucket_indexERKNS1_16_Hash_node_valueIcLb0EEE, symObjAddr: 0x51FA, symBinAddr: 0x100006050, symSize: 0x2D }
  - { offsetInCU: 0x16E6A, offset: 0x16E6A, size: 0x8, addend: 0x0, symName: __ZNKSt8__detail21_Hashtable_ebo_helperILi1ESt4hashIcELb1EE7_M_cgetEv, symObjAddr: 0x5194, symBinAddr: 0x100005FEA, symSize: 0xE }
  - { offsetInCU: 0x16E72, offset: 0x16E72, size: 0x8, addend: 0x0, symName: __ZNKSt8__detail15_Hashtable_baseIccNS_9_IdentityESt8equal_toIcESt4hashIcENS_18_Mod_range_hashingENS_20_Default_ranged_hashENS_17_Hashtable_traitsILb0ELb1ELb1EEEE9_M_equalsERKcmRKNS_16_Hash_node_valueIcLb0EEE, symObjAddr: 0x51A2, symBinAddr: 0x100005FF8, symSize: 0x58 }
  - { offsetInCU: 0x16E99, offset: 0x16E99, size: 0x8, addend: 0x0, symName: __ZNKSt8__detail21_Hash_node_value_baseIcE9_M_valptrEv, symObjAddr: 0x517A, symBinAddr: 0x100005FD0, symSize: 0x1A }
  - { offsetInCU: 0x16EA1, offset: 0x16EA1, size: 0x8, addend: 0x0, symName: __ZNKSt8__detail21_Hashtable_ebo_helperILi1ESt4hashIcELb1EE7_M_cgetEv, symObjAddr: 0x5194, symBinAddr: 0x100005FEA, symSize: 0xE }
  - { offsetInCU: 0x16EC8, offset: 0x16EC8, size: 0x8, addend: 0x0, symName: __ZNKSt8__detail21_Hashtable_ebo_helperILi0ESt8equal_toIcELb1EE7_M_cgetEv, symObjAddr: 0x516C, symBinAddr: 0x100005FC2, symSize: 0xE }
  - { offsetInCU: 0x16ED0, offset: 0x16ED0, size: 0x8, addend: 0x0, symName: __ZNKSt8__detail21_Hash_node_value_baseIcE9_M_valptrEv, symObjAddr: 0x517A, symBinAddr: 0x100005FD0, symSize: 0x1A }
  - { offsetInCU: 0x16F24, offset: 0x16F24, size: 0x8, addend: 0x0, symName: __ZNSt5dequeIcSaIcEE17_M_reallocate_mapEmb, symObjAddr: 0x4F4C, symBinAddr: 0x100005DA2, symSize: 0x220 }
  - { offsetInCU: 0x16FF5, offset: 0x16FF5, size: 0x8, addend: 0x0, symName: __ZNSt5dequeIcSaIcEE11_S_max_sizeERKS0_, symObjAddr: 0x4EF2, symBinAddr: 0x100005D48, symSize: 0x5A }
  - { offsetInCU: 0x16FFD, offset: 0x16FFD, size: 0x8, addend: 0x0, symName: __ZNSt5dequeIcSaIcEE17_M_reallocate_mapEmb, symObjAddr: 0x4F4C, symBinAddr: 0x100005DA2, symSize: 0x220 }
  - { offsetInCU: 0x170F7, offset: 0x170F7, size: 0x8, addend: 0x0, symName: __ZStmiRKSt15_Deque_iteratorIcRcPcES4_, symObjAddr: 0x4E75, symBinAddr: 0x100005CCB, symSize: 0x7D }
  - { offsetInCU: 0x170FF, offset: 0x170FF, size: 0x8, addend: 0x0, symName: __ZNSt5dequeIcSaIcEE11_S_max_sizeERKS0_, symObjAddr: 0x4EF2, symBinAddr: 0x100005D48, symSize: 0x5A }
  - { offsetInCU: 0x1714E, offset: 0x1714E, size: 0x8, addend: 0x0, symName: __ZNSt8__detail16_Hashtable_allocISaINS_10_Hash_nodeIcLb0EEEEE22_M_deallocate_node_ptrEPS2_, symObjAddr: 0x4E1A, symBinAddr: 0x100005C70, symSize: 0x5B }
  - { offsetInCU: 0x17156, offset: 0x17156, size: 0x8, addend: 0x0, symName: __ZStmiRKSt15_Deque_iteratorIcRcPcES4_, symObjAddr: 0x4E75, symBinAddr: 0x100005CCB, symSize: 0x7D }
  - { offsetInCU: 0x1721D, offset: 0x1721D, size: 0x8, addend: 0x0, symName: __ZNSt8__detail21_Hash_node_value_baseIcE9_M_valptrEv, symObjAddr: 0x4E00, symBinAddr: 0x100005C56, symSize: 0x1A }
  - { offsetInCU: 0x17225, offset: 0x17225, size: 0x8, addend: 0x0, symName: __ZNSt8__detail16_Hashtable_allocISaINS_10_Hash_nodeIcLb0EEEEE22_M_deallocate_node_ptrEPS2_, symObjAddr: 0x4E1A, symBinAddr: 0x100005C70, symSize: 0x5B }
  - { offsetInCU: 0x1724C, offset: 0x1724C, size: 0x8, addend: 0x0, symName: __ZNSt8__detail16_Hashtable_allocISaINS_10_Hash_nodeIcLb0EEEEE17_M_node_allocatorEv, symObjAddr: 0x4DE6, symBinAddr: 0x100005C3C, symSize: 0x1A }
  - { offsetInCU: 0x17254, offset: 0x17254, size: 0x8, addend: 0x0, symName: __ZNSt8__detail21_Hash_node_value_baseIcE9_M_valptrEv, symObjAddr: 0x4E00, symBinAddr: 0x100005C56, symSize: 0x1A }
  - { offsetInCU: 0x1727B, offset: 0x1727B, size: 0x8, addend: 0x0, symName: __ZNSt15__new_allocatorIPcE10deallocateEPS0_m, symObjAddr: 0x4DB4, symBinAddr: 0x100005C0A, symSize: 0x32 }
  - { offsetInCU: 0x17316, offset: 0x17316, size: 0x8, addend: 0x0, symName: __ZNSt15__new_allocatorIPcED2Ev, symObjAddr: 0x4DA8, symBinAddr: 0x100005BFE, symSize: 0xC }
  - { offsetInCU: 0x17354, offset: 0x17354, size: 0x8, addend: 0x0, symName: __ZNKSt11_Deque_baseIcSaIcEE19_M_get_Tp_allocatorEv, symObjAddr: 0x4D9A, symBinAddr: 0x100005BF0, symSize: 0xE }
  - { offsetInCU: 0x1735C, offset: 0x1735C, size: 0x8, addend: 0x0, symName: __ZNSt15__new_allocatorIPcED2Ev, symObjAddr: 0x4DA8, symBinAddr: 0x100005BFE, symSize: 0xC }
  - { offsetInCU: 0x173C1, offset: 0x173C1, size: 0x8, addend: 0x0, symName: __ZNSt15_Deque_iteratorIcRcPcE14_S_buffer_sizeEv, symObjAddr: 0x4D8A, symBinAddr: 0x100005BE0, symSize: 0x10 }
  - { offsetInCU: 0x173C9, offset: 0x173C9, size: 0x8, addend: 0x0, symName: __ZNKSt11_Deque_baseIcSaIcEE19_M_get_Tp_allocatorEv, symObjAddr: 0x4D9A, symBinAddr: 0x100005BF0, symSize: 0xE }
  - { offsetInCU: 0x17446, offset: 0x17446, size: 0x8, addend: 0x0, symName: __ZNSt15_Deque_iteratorIcRcPcEC1Ev, symObjAddr: 0x4D50, symBinAddr: 0x100005BA6, symSize: 0x3A }
  - { offsetInCU: 0x1744E, offset: 0x1744E, size: 0x8, addend: 0x0, symName: __ZNSt15_Deque_iteratorIcRcPcE14_S_buffer_sizeEv, symObjAddr: 0x4D8A, symBinAddr: 0x100005BE0, symSize: 0x10 }
  - { offsetInCU: 0x1746B, offset: 0x1746B, size: 0x8, addend: 0x0, symName: __ZNSt10_HashtableI4EdgeIcES1_SaIS1_ENSt8__detail9_IdentityESt8equal_toIS1_ESt4hashIS1_ENS3_18_Mod_range_hashingENS3_20_Default_ranged_hashENS3_20_Prime_rehash_policyENS3_17_Hashtable_traitsILb1ELb1ELb1EEEE16_M_insert_uniqueIS1_S1_NS3_10_AllocNodeISaINS3_10_Hash_nodeIS1_Lb1EEEEEEEESt4pairINS3_14_Node_iteratorIS1_Lb1ELb1EEEbEOT_OT0_RKT1_, symObjAddr: 0x4A9C, symBinAddr: 0x1000058F2, symSize: 0x2B4 }
  - { offsetInCU: 0x17473, offset: 0x17473, size: 0x8, addend: 0x0, symName: __ZNSt15_Deque_iteratorIcRcPcEC1Ev, symObjAddr: 0x4D50, symBinAddr: 0x100005BA6, symSize: 0x3A }
  - { offsetInCU: 0x175A1, offset: 0x175A1, size: 0x8, addend: 0x0, symName: __ZNSt10_HashtableI4EdgeIcES1_SaIS1_ENSt8__detail9_IdentityESt8equal_toIS1_ESt4hashIS1_ENS3_18_Mod_range_hashingENS3_20_Default_ranged_hashENS3_20_Prime_rehash_policyENS3_17_Hashtable_traitsILb1ELb1ELb1EEEE14_S_forward_keyEOS1_, symObjAddr: 0x4A82, symBinAddr: 0x1000058D8, symSize: 0x1A }
  - { offsetInCU: 0x175A9, offset: 0x175A9, size: 0x8, addend: 0x0, symName: __ZNSt10_HashtableI4EdgeIcES1_SaIS1_ENSt8__detail9_IdentityESt8equal_toIS1_ESt4hashIS1_ENS3_18_Mod_range_hashingENS3_20_Default_ranged_hashENS3_20_Prime_rehash_policyENS3_17_Hashtable_traitsILb1ELb1ELb1EEEE16_M_insert_uniqueIS1_S1_NS3_10_AllocNodeISaINS3_10_Hash_nodeIS1_Lb1EEEEEEEESt4pairINS3_14_Node_iteratorIS1_Lb1ELb1EEEbEOT_OT0_RKT1_, symObjAddr: 0x4A9C, symBinAddr: 0x1000058F2, symSize: 0x2B4 }
  - { offsetInCU: 0x175D3, offset: 0x175D3, size: 0x8, addend: 0x0, symName: __ZNKSt8__detail9_IdentityclI4EdgeIcEEEOT_S5_, symObjAddr: 0x4A64, symBinAddr: 0x1000058BA, symSize: 0x1E }
  - { offsetInCU: 0x175DB, offset: 0x175DB, size: 0x8, addend: 0x0, symName: __ZNSt10_HashtableI4EdgeIcES1_SaIS1_ENSt8__detail9_IdentityESt8equal_toIS1_ESt4hashIS1_ENS3_18_Mod_range_hashingENS3_20_Default_ranged_hashENS3_20_Prime_rehash_policyENS3_17_Hashtable_traitsILb1ELb1ELb1EEEE14_S_forward_keyEOS1_, symObjAddr: 0x4A82, symBinAddr: 0x1000058D8, symSize: 0x1A }
  - { offsetInCU: 0x17622, offset: 0x17622, size: 0x8, addend: 0x0, symName: __ZNSt10_HashtableI4EdgeIcES1_SaIS1_ENSt8__detail9_IdentityESt8equal_toIS1_ESt4hashIS1_ENS3_18_Mod_range_hashingENS3_20_Default_ranged_hashENS3_20_Prime_rehash_policyENS3_17_Hashtable_traitsILb1ELb1ELb1EEEE22_M_remove_bucket_beginEmPNS3_10_Hash_nodeIS1_Lb1EEEm, symObjAddr: 0x49C4, symBinAddr: 0x10000581A, symSize: 0xA0 }
  - { offsetInCU: 0x1762A, offset: 0x1762A, size: 0x8, addend: 0x0, symName: __ZNKSt8__detail9_IdentityclI4EdgeIcEEEOT_S5_, symObjAddr: 0x4A64, symBinAddr: 0x1000058BA, symSize: 0x1E }
  - { offsetInCU: 0x1768D, offset: 0x1768D, size: 0x8, addend: 0x0, symName: __ZNKSt8__detail15_Hashtable_baseI4EdgeIcES2_NS_9_IdentityESt8equal_toIS2_ESt4hashIS2_ENS_18_Mod_range_hashingENS_20_Default_ranged_hashENS_17_Hashtable_traitsILb1ELb1ELb1EEEE9_M_equalsERKS2_mRKNS_16_Hash_node_valueIS2_Lb1EEE, symObjAddr: 0x4968, symBinAddr: 0x1000057BE, symSize: 0x5C }
  - { offsetInCU: 0x17695, offset: 0x17695, size: 0x8, addend: 0x0, symName: __ZNSt10_HashtableI4EdgeIcES1_SaIS1_ENSt8__detail9_IdentityESt8equal_toIS1_ESt4hashIS1_ENS3_18_Mod_range_hashingENS3_20_Default_ranged_hashENS3_20_Prime_rehash_policyENS3_17_Hashtable_traitsILb1ELb1ELb1EEEE22_M_remove_bucket_beginEmPNS3_10_Hash_nodeIS1_Lb1EEEm, symObjAddr: 0x49C4, symBinAddr: 0x10000581A, symSize: 0xA0 }
  - { offsetInCU: 0x176F8, offset: 0x176F8, size: 0x8, addend: 0x0, symName: __ZNKSt8__detail15_Hash_code_baseI4EdgeIcES2_NS_9_IdentityESt4hashIS2_ENS_18_Mod_range_hashingENS_20_Default_ranged_hashELb1EE15_M_bucket_indexEmm, symObjAddr: 0x493A, symBinAddr: 0x100005790, symSize: 0x2E }
  - { offsetInCU: 0x1774F, offset: 0x1774F, size: 0x8, addend: 0x0, symName: __ZNKSt4hashI4EdgeIcEEclERKS1_, symObjAddr: 0x490A, symBinAddr: 0x100005760, symSize: 0x30 }
  - { offsetInCU: 0x17791, offset: 0x17791, size: 0x8, addend: 0x0, symName: __ZNKSt8__detail15_Hash_code_baseI4EdgeIcES2_NS_9_IdentityESt4hashIS2_ENS_18_Mod_range_hashingENS_20_Default_ranged_hashELb1EE7_M_hashEv, symObjAddr: 0x48F0, symBinAddr: 0x100005746, symSize: 0x1A }
  - { offsetInCU: 0x17799, offset: 0x17799, size: 0x8, addend: 0x0, symName: __ZNKSt4hashI4EdgeIcEEclERKS1_, symObjAddr: 0x490A, symBinAddr: 0x100005760, symSize: 0x30 }
  - { offsetInCU: 0x177C0, offset: 0x177C0, size: 0x8, addend: 0x0, symName: __ZNKSt8__detail15_Hash_code_baseI4EdgeIcES2_NS_9_IdentityESt4hashIS2_ENS_18_Mod_range_hashingENS_20_Default_ranged_hashELb1EE15_M_bucket_indexERKNS_16_Hash_node_valueIS2_Lb1EEEm, symObjAddr: 0x48BE, symBinAddr: 0x100005714, symSize: 0x32 }
  - { offsetInCU: 0x17817, offset: 0x17817, size: 0x8, addend: 0x0, symName: __ZNKSt8__detail15_Hashtable_baseI4EdgeIcES2_NS_9_IdentityESt8equal_toIS2_ESt4hashIS2_ENS_18_Mod_range_hashingENS_20_Default_ranged_hashENS_17_Hashtable_traitsILb1ELb1ELb1EEEE13_M_key_equalsERKS2_RKNS_16_Hash_node_valueIS2_Lb1EEE, symObjAddr: 0x4864, symBinAddr: 0x1000056BA, symSize: 0x5A }
  - { offsetInCU: 0x1781F, offset: 0x1781F, size: 0x8, addend: 0x0, symName: __ZNKSt8__detail15_Hash_code_baseI4EdgeIcES2_NS_9_IdentityESt4hashIS2_ENS_18_Mod_range_hashingENS_20_Default_ranged_hashELb1EE15_M_bucket_indexERKNS_16_Hash_node_valueIS2_Lb1EEEm, symObjAddr: 0x48BE, symBinAddr: 0x100005714, symSize: 0x32 }
  - { offsetInCU: 0x1786F, offset: 0x1786F, size: 0x8, addend: 0x0, symName: __ZNSt8__detail22_Hashtable_hash_traitsISt4hashI4EdgeIcEEE22__small_size_thresholdEv, symObjAddr: 0x4858, symBinAddr: 0x1000056AE, symSize: 0xC }
  - { offsetInCU: 0x17930, offset: 0x17930, size: 0x8, addend: 0x0, symName: __ZSt4moveIRSaINSt8__detail10_Hash_nodeI4EdgeIcELb1EEEEEONSt16remove_referenceIT_E4typeEOS8_, symObjAddr: 0x484A, symBinAddr: 0x1000056A0, symSize: 0xE }
  - { offsetInCU: 0x17938, offset: 0x17938, size: 0x8, addend: 0x0, symName: __ZNSt8__detail22_Hashtable_hash_traitsISt4hashI4EdgeIcEEE22__small_size_thresholdEv, symObjAddr: 0x4858, symBinAddr: 0x1000056AE, symSize: 0xC }
  - { offsetInCU: 0x178E0, offset: 0x178E0, size: 0x8, addend: 0x0, symName: __ZNSt8__detail21_Hashtable_ebo_helperILi0ESaINS_10_Hash_nodeI4EdgeIcELb1EEEELb1EE6_M_getEv, symObjAddr: 0x483C, symBinAddr: 0x100005692, symSize: 0xE }
  - { offsetInCU: 0x178E8, offset: 0x178E8, size: 0x8, addend: 0x0, symName: __ZSt4moveIRSaINSt8__detail10_Hash_nodeI4EdgeIcELb1EEEEEONSt16remove_referenceIT_E4typeEOS8_, symObjAddr: 0x484A, symBinAddr: 0x1000056A0, symSize: 0xE }
  - { offsetInCU: 0x1790F, offset: 0x1790F, size: 0x8, addend: 0x0, symName: __ZNSt8__detail16_Hashtable_allocISaINS_10_Hash_nodeI4EdgeIcELb1EEEEE21_M_deallocate_bucketsEPPNS_15_Hash_node_baseEm, symObjAddr: 0x47C6, symBinAddr: 0x10000561C, symSize: 0x76 }
  - { offsetInCU: 0x17917, offset: 0x17917, size: 0x8, addend: 0x0, symName: __ZNSt8__detail21_Hashtable_ebo_helperILi0ESaINS_10_Hash_nodeI4EdgeIcELb1EEEELb1EE6_M_getEv, symObjAddr: 0x483C, symBinAddr: 0x100005692, symSize: 0xE }
  - { offsetInCU: 0x17A44, offset: 0x17A44, size: 0x8, addend: 0x0, symName: __ZNKSt10_HashtableI4EdgeIcES1_SaIS1_ENSt8__detail9_IdentityESt8equal_toIS1_ESt4hashIS1_ENS3_18_Mod_range_hashingENS3_20_Default_ranged_hashENS3_20_Prime_rehash_policyENS3_17_Hashtable_traitsILb1ELb1ELb1EEEE21_M_uses_single_bucketEPPNS3_15_Hash_node_baseE, symObjAddr: 0x47A0, symBinAddr: 0x1000055F6, symSize: 0x26 }
  - { offsetInCU: 0x17A4C, offset: 0x17A4C, size: 0x8, addend: 0x0, symName: __ZNSt8__detail16_Hashtable_allocISaINS_10_Hash_nodeI4EdgeIcELb1EEEEE21_M_deallocate_bucketsEPPNS_15_Hash_node_baseEm, symObjAddr: 0x47C6, symBinAddr: 0x10000561C, symSize: 0x76 }
  - { offsetInCU: 0x17A87, offset: 0x17A87, size: 0x8, addend: 0x0, symName: __ZNSt8__detail16_Hashtable_allocISaINS_10_Hash_nodeI4EdgeIcELb1EEEEE18_M_deallocate_nodeEPS4_, symObjAddr: 0x473C, symBinAddr: 0x100005592, symSize: 0x64 }
  - { offsetInCU: 0x17A8F, offset: 0x17A8F, size: 0x8, addend: 0x0, symName: __ZNKSt10_HashtableI4EdgeIcES1_SaIS1_ENSt8__detail9_IdentityESt8equal_toIS1_ESt4hashIS1_ENS3_18_Mod_range_hashingENS3_20_Default_ranged_hashENS3_20_Prime_rehash_policyENS3_17_Hashtable_traitsILb1ELb1ELb1EEEE21_M_uses_single_bucketEPPNS3_15_Hash_node_baseE, symObjAddr: 0x47A0, symBinAddr: 0x1000055F6, symSize: 0x26 }
  - { offsetInCU: 0x17B30, offset: 0x17B30, size: 0x8, addend: 0x0, symName: __ZNSt10_HashtableIcSt4pairIKcSt13unordered_setI4EdgeIcESt4hashIS4_ESt8equal_toIS4_ESaIS4_EEESaISB_ENSt8__detail10_Select1stES7_IcES5_IcENSD_18_Mod_range_hashingENSD_20_Default_ranged_hashENSD_20_Prime_rehash_policyENSD_17_Hashtable_traitsILb0ELb0ELb1EEEE22_M_insert_bucket_beginEmPNSD_10_Hash_nodeISB_Lb0EEE, symObjAddr: 0x464C, symBinAddr: 0x1000054A2, symSize: 0xF0 }
  - { offsetInCU: 0x17B38, offset: 0x17B38, size: 0x8, addend: 0x0, symName: __ZNSt8__detail16_Hashtable_allocISaINS_10_Hash_nodeI4EdgeIcELb1EEEEE18_M_deallocate_nodeEPS4_, symObjAddr: 0x473C, symBinAddr: 0x100005592, symSize: 0x64 }
  - { offsetInCU: 0x17B87, offset: 0x17B87, size: 0x8, addend: 0x0, symName: __ZNKSt8__detail15_Hash_code_baseIcSt4pairIKcSt13unordered_setI4EdgeIcESt4hashIS5_ESt8equal_toIS5_ESaIS5_EEENS_10_Select1stES6_IcENS_18_Mod_range_hashingENS_20_Default_ranged_hashELb0EE13_M_store_codeERNS_21_Hash_node_code_cacheILb0EEEm, symObjAddr: 0x4638, symBinAddr: 0x10000548E, symSize: 0x14 }
  - { offsetInCU: 0x17BCE, offset: 0x17BCE, size: 0x8, addend: 0x0, symName: __ZNSt10_HashtableIcSt4pairIKcSt13unordered_setI4EdgeIcESt4hashIS4_ESt8equal_toIS4_ESaIS4_EEESaISB_ENSt8__detail10_Select1stES7_IcES5_IcENSD_18_Mod_range_hashingENSD_20_Default_ranged_hashENSD_20_Prime_rehash_policyENSD_17_Hashtable_traitsILb0ELb0ELb1EEEE9_M_rehashEmRKm, symObjAddr: 0x45CE, symBinAddr: 0x100005424, symSize: 0x6A }
  - { offsetInCU: 0x17BD6, offset: 0x17BD6, size: 0x8, addend: 0x0, symName: __ZNKSt8__detail15_Hash_code_baseIcSt4pairIKcSt13unordered_setI4EdgeIcESt4hashIS5_ESt8equal_toIS5_ESaIS5_EEENS_10_Select1stES6_IcENS_18_Mod_range_hashingENS_20_Default_ranged_hashELb0EE13_M_store_codeERNS_21_Hash_node_code_cacheILb0EEEm, symObjAddr: 0x4638, symBinAddr: 0x10000548E, symSize: 0x14 }
  - { offsetInCU: 0x17C25, offset: 0x17C25, size: 0x8, addend: 0x0, symName: __ZNSt8__detail16_Hashtable_allocISaINS_10_Hash_nodeISt4pairIKcSt13unordered_setI4EdgeIcESt4hashIS6_ESt8equal_toIS6_ESaIS6_EEELb0EEEEE16_M_allocate_nodeIJRKSt21piecewise_construct_tSt5tupleIJRS3_EESL_IJEEEEEPSE_DpOT_, symObjAddr: 0x437E, symBinAddr: 0x1000051D4, symSize: 0x250 }
  - { offsetInCU: 0x17C2D, offset: 0x17C2D, size: 0x8, addend: 0x0, symName: __ZNSt10_HashtableIcSt4pairIKcSt13unordered_setI4EdgeIcESt4hashIS4_ESt8equal_toIS4_ESaIS4_EEESaISB_ENSt8__detail10_Select1stES7_IcES5_IcENSD_18_Mod_range_hashingENSD_20_Default_ranged_hashENSD_20_Prime_rehash_policyENSD_17_Hashtable_traitsILb0ELb0ELb1EEEE9_M_rehashEmRKm, symObjAddr: 0x45CE, symBinAddr: 0x100005424, symSize: 0x6A }
  - { offsetInCU: 0x17E81, offset: 0x17E81, size: 0x8, addend: 0x0, symName: __ZNSt8__detail10_Hash_nodeISt4pairIKcSt13unordered_setI4EdgeIcESt4hashIS5_ESt8equal_toIS5_ESaIS5_EEELb0EEC1Ev, symObjAddr: 0x4362, symBinAddr: 0x1000051B8, symSize: 0x1C }
  - { offsetInCU: 0x17E9B, offset: 0x17E9B, size: 0x8, addend: 0x0, symName: __ZSt7forwardISt5tupleIJEEEOT_RNSt16remove_referenceIS2_E4typeE, symObjAddr: 0x4354, symBinAddr: 0x1000051AA, symSize: 0xE }
  - { offsetInCU: 0x17EA3, offset: 0x17EA3, size: 0x8, addend: 0x0, symName: __ZNSt8__detail10_Hash_nodeISt4pairIKcSt13unordered_setI4EdgeIcESt4hashIS5_ESt8equal_toIS5_ESaIS5_EEELb0EEC1Ev, symObjAddr: 0x4362, symBinAddr: 0x1000051B8, symSize: 0x1C }
  - { offsetInCU: 0x17EFD, offset: 0x17EFD, size: 0x8, addend: 0x0, symName: __ZSt7forwardISt5tupleIJRKcEEEOT_RNSt16remove_referenceIS4_E4typeE, symObjAddr: 0x4346, symBinAddr: 0x10000519C, symSize: 0xE }
  - { offsetInCU: 0x17F05, offset: 0x17F05, size: 0x8, addend: 0x0, symName: __ZSt7forwardISt5tupleIJEEEOT_RNSt16remove_referenceIS2_E4typeE, symObjAddr: 0x4354, symBinAddr: 0x1000051AA, symSize: 0xE }
  - { offsetInCU: 0x17F66, offset: 0x17F66, size: 0x8, addend: 0x0, symName: __ZSt7forwardIRKSt21piecewise_construct_tEOT_RNSt16remove_referenceIS3_E4typeE, symObjAddr: 0x4338, symBinAddr: 0x10000518E, symSize: 0xE }
  - { offsetInCU: 0x17F6E, offset: 0x17F6E, size: 0x8, addend: 0x0, symName: __ZSt7forwardISt5tupleIJRKcEEEOT_RNSt16remove_referenceIS4_E4typeE, symObjAddr: 0x4346, symBinAddr: 0x10000519C, symSize: 0xE }
  - { offsetInCU: 0x17F8B, offset: 0x17F8B, size: 0x8, addend: 0x0, symName: __ZNSt11_Tuple_implILm0EJRKcEEC2ES1_, symObjAddr: 0x4312, symBinAddr: 0x100005168, symSize: 0x26 }
  - { offsetInCU: 0x17F93, offset: 0x17F93, size: 0x8, addend: 0x0, symName: __ZSt7forwardIRKSt21piecewise_construct_tEOT_RNSt16remove_referenceIS3_E4typeE, symObjAddr: 0x4338, symBinAddr: 0x10000518E, symSize: 0xE }
  - { offsetInCU: 0x1805B, offset: 0x1805B, size: 0x8, addend: 0x0, symName: __ZNSt8__detail19_Node_iterator_baseISt4pairIKcSt13unordered_setI4EdgeIcESt4hashIS5_ESt8equal_toIS5_ESaIS5_EEELb0EEC2EPNS_10_Hash_nodeISC_Lb0EEE, symObjAddr: 0x42F8, symBinAddr: 0x10000514E, symSize: 0x1A }
  - { offsetInCU: 0x18063, offset: 0x18063, size: 0x8, addend: 0x0, symName: __ZNSt11_Tuple_implILm0EJRKcEEC2ES1_, symObjAddr: 0x4312, symBinAddr: 0x100005168, symSize: 0x26 }
  - { offsetInCU: 0x18005, offset: 0x18005, size: 0x8, addend: 0x0, symName: __ZNKSt10_HashtableIcSt4pairIKcSt13unordered_setI4EdgeIcESt4hashIS4_ESt8equal_toIS4_ESaIS4_EEESaISB_ENSt8__detail10_Select1stES7_IcES5_IcENSD_18_Mod_range_hashingENSD_20_Default_ranged_hashENSD_20_Prime_rehash_policyENSD_17_Hashtable_traitsILb0ELb0ELb1EEEE19_M_find_before_nodeEmRS1_m, symObjAddr: 0x421E, symBinAddr: 0x100005074, symSize: 0xDA }
  - { offsetInCU: 0x180AA, offset: 0x180AA, size: 0x8, addend: 0x0, symName: __ZNKSt8__detail15_Hash_code_baseIcSt4pairIKcSt13unordered_setI4EdgeIcESt4hashIS5_ESt8equal_toIS5_ESaIS5_EEENS_10_Select1stES6_IcENS_18_Mod_range_hashingENS_20_Default_ranged_hashELb0EE15_M_bucket_indexEmm, symObjAddr: 0x41F0, symBinAddr: 0x100005046, symSize: 0x2E }
  - { offsetInCU: 0x18101, offset: 0x18101, size: 0x8, addend: 0x0, symName: __ZNKSt8__detail15_Hash_code_baseIcSt4pairIKcSt13unordered_setI4EdgeIcESt4hashIS5_ESt8equal_toIS5_ESaIS5_EEENS_10_Select1stES6_IcENS_18_Mod_range_hashingENS_20_Default_ranged_hashELb0EE7_M_hashEv, symObjAddr: 0x41D6, symBinAddr: 0x10000502C, symSize: 0x1A }
  - { offsetInCU: 0x18109, offset: 0x18109, size: 0x8, addend: 0x0, symName: __ZNKSt8__detail15_Hash_code_baseIcSt4pairIKcSt13unordered_setI4EdgeIcESt4hashIS5_ESt8equal_toIS5_ESaIS5_EEENS_10_Select1stES6_IcENS_18_Mod_range_hashingENS_20_Default_ranged_hashELb0EE15_M_bucket_indexEmm, symObjAddr: 0x41F0, symBinAddr: 0x100005046, symSize: 0x2E }
  - { offsetInCU: 0x18143, offset: 0x18143, size: 0x8, addend: 0x0, symName: __ZNKSt8__detail10_Select1stclIRKSt4pairIKcSt13unordered_setI4EdgeIcESt4hashIS6_ESt8equal_toIS6_ESaIS6_EEEEEONS0_10__1st_typeIT_E4typeEOSH_, symObjAddr: 0x41B8, symBinAddr: 0x10000500E, symSize: 0x1E }
  - { offsetInCU: 0x1814B, offset: 0x1814B, size: 0x8, addend: 0x0, symName: __ZNKSt8__detail15_Hash_code_baseIcSt4pairIKcSt13unordered_setI4EdgeIcESt4hashIS5_ESt8equal_toIS5_ESaIS5_EEENS_10_Select1stES6_IcENS_18_Mod_range_hashingENS_20_Default_ranged_hashELb0EE7_M_hashEv, symObjAddr: 0x41D6, symBinAddr: 0x10000502C, symSize: 0x1A }
  - { offsetInCU: 0x18192, offset: 0x18192, size: 0x8, addend: 0x0, symName: __ZNKSt8__detail21_Hash_node_value_baseISt4pairIKcSt13unordered_setI4EdgeIcESt4hashIS5_ESt8equal_toIS5_ESaIS5_EEEE4_M_vEv, symObjAddr: 0x419E, symBinAddr: 0x100004FF4, symSize: 0x1A }
  - { offsetInCU: 0x1819A, offset: 0x1819A, size: 0x8, addend: 0x0, symName: __ZNKSt8__detail10_Select1stclIRKSt4pairIKcSt13unordered_setI4EdgeIcESt4hashIS6_ESt8equal_toIS6_ESaIS6_EEEEEONS0_10__1st_typeIT_E4typeEOSH_, symObjAddr: 0x41B8, symBinAddr: 0x10000500E, symSize: 0x1E }
  - { offsetInCU: 0x181C1, offset: 0x181C1, size: 0x8, addend: 0x0, symName: __ZNKSt8__detail15_Hashtable_baseIcSt4pairIKcSt13unordered_setI4EdgeIcESt4hashIS5_ESt8equal_toIS5_ESaIS5_EEENS_10_Select1stES8_IcES6_IcENS_18_Mod_range_hashingENS_20_Default_ranged_hashENS_17_Hashtable_traitsILb0ELb0ELb1EEEE5_M_eqEv, symObjAddr: 0x4184, symBinAddr: 0x100004FDA, symSize: 0x1A }
  - { offsetInCU: 0x181C9, offset: 0x181C9, size: 0x8, addend: 0x0, symName: __ZNKSt8__detail21_Hash_node_value_baseISt4pairIKcSt13unordered_setI4EdgeIcESt4hashIS5_ESt8equal_toIS5_ESaIS5_EEEE4_M_vEv, symObjAddr: 0x419E, symBinAddr: 0x100004FF4, symSize: 0x1A }
  - { offsetInCU: 0x181F0, offset: 0x181F0, size: 0x8, addend: 0x0, symName: __ZNSt8__detail19_Node_iterator_baseISt4pairIKcSt13unordered_setI4EdgeIcESt4hashIS5_ESt8equal_toIS5_ESaIS5_EEELb0EE7_M_incrEv, symObjAddr: 0x415E, symBinAddr: 0x100004FB4, symSize: 0x26 }
  - { offsetInCU: 0x1821F, offset: 0x1821F, size: 0x8, addend: 0x0, symName: __ZNSt15__new_allocatorIPNSt8__detail15_Hash_node_baseEE10deallocateEPS2_m, symObjAddr: 0x412C, symBinAddr: 0x100004F82, symSize: 0x32 }
  - { offsetInCU: 0x182D7, offset: 0x182D7, size: 0x8, addend: 0x0, symName: __ZNSt15__new_allocatorIPNSt8__detail15_Hash_node_baseEED2Ev, symObjAddr: 0x4120, symBinAddr: 0x100004F76, symSize: 0xC }
  - { offsetInCU: 0x18348, offset: 0x18348, size: 0x8, addend: 0x0, symName: __ZSt9addressofIPNSt8__detail15_Hash_node_baseEEPT_RS3_, symObjAddr: 0x4105, symBinAddr: 0x100004F5B, symSize: 0x1B }
  - { offsetInCU: 0x1836A, offset: 0x1836A, size: 0x8, addend: 0x0, symName: __ZNSt19__ptr_traits_ptr_toIPNSt8__detail10_Hash_nodeISt4pairIKcSt13unordered_setI4EdgeIcESt4hashIS6_ESt8equal_toIS6_ESaIS6_EEELb0EEESE_Lb0EE10pointer_toERSE_, symObjAddr: 0x40EB, symBinAddr: 0x100004F41, symSize: 0x1A }
  - { offsetInCU: 0x18372, offset: 0x18372, size: 0x8, addend: 0x0, symName: __ZSt9addressofIPNSt8__detail15_Hash_node_baseEEPT_RS3_, symObjAddr: 0x4105, symBinAddr: 0x100004F5B, symSize: 0x1B }
  - { offsetInCU: 0x1844C, offset: 0x1844C, size: 0x8, addend: 0x0, symName: __ZNSt4pairIKcSt13unordered_setI4EdgeIcESt4hashIS3_ESt8equal_toIS3_ESaIS3_EEED1Ev, symObjAddr: 0x40CC, symBinAddr: 0x100004F22, symSize: 0x1F }
  - { offsetInCU: 0x18454, offset: 0x18454, size: 0x8, addend: 0x0, symName: __ZNSt19__ptr_traits_ptr_toIPNSt8__detail10_Hash_nodeISt4pairIKcSt13unordered_setI4EdgeIcESt4hashIS6_ESt8equal_toIS6_ESaIS6_EEELb0EEESE_Lb0EE10pointer_toERSE_, symObjAddr: 0x40EB, symBinAddr: 0x100004F41, symSize: 0x1A }
  - { offsetInCU: 0x18429, offset: 0x18429, size: 0x8, addend: 0x0, symName: __ZN9__gnu_cxx16__aligned_bufferISt4pairIKcSt13unordered_setI4EdgeIcESt4hashIS5_ESt8equal_toIS5_ESaIS5_EEEE6_M_ptrEv, symObjAddr: 0x40B2, symBinAddr: 0x100004F08, symSize: 0x1A }
  - { offsetInCU: 0x18431, offset: 0x18431, size: 0x8, addend: 0x0, symName: __ZNSt4pairIKcSt13unordered_setI4EdgeIcESt4hashIS3_ESt8equal_toIS3_ESaIS3_EEED1Ev, symObjAddr: 0x40CC, symBinAddr: 0x100004F22, symSize: 0x1F }
  - { offsetInCU: 0x18458, offset: 0x18458, size: 0x8, addend: 0x0, symName: __ZNSt8__detail21_Hashtable_ebo_helperILi0ESaINS_10_Hash_nodeISt4pairIKcSt13unordered_setI4EdgeIcESt4hashIS6_ESt8equal_toIS6_ESaIS6_EEELb0EEEELb1EE6_M_getEv, symObjAddr: 0x40A4, symBinAddr: 0x100004EFA, symSize: 0xE }
  - { offsetInCU: 0x18460, offset: 0x18460, size: 0x8, addend: 0x0, symName: __ZN9__gnu_cxx16__aligned_bufferISt4pairIKcSt13unordered_setI4EdgeIcESt4hashIS5_ESt8equal_toIS5_ESaIS5_EEEE6_M_ptrEv, symObjAddr: 0x40B2, symBinAddr: 0x100004F08, symSize: 0x1A }
  - { offsetInCU: 0x18487, offset: 0x18487, size: 0x8, addend: 0x0, symName: __ZNSt5dequeIcSaIcEE4backEv, symObjAddr: 0x406A, symBinAddr: 0x100004EC0, symSize: 0x3A }
  - { offsetInCU: 0x184CA, offset: 0x184CA, size: 0x8, addend: 0x0, symName: __ZNSt5dequeIcSaIcEE16_M_push_back_auxIJcEEEvDpOT_, symObjAddr: 0x3F58, symBinAddr: 0x100004DAE, symSize: 0x112 }
  - { offsetInCU: 0x184D2, offset: 0x184D2, size: 0x8, addend: 0x0, symName: __ZNSt5dequeIcSaIcEE4backEv, symObjAddr: 0x406A, symBinAddr: 0x100004EC0, symSize: 0x3A }
  - { offsetInCU: 0x185F2, offset: 0x185F2, size: 0x8, addend: 0x0, symName: __ZN9__gnu_cxx16__aligned_bufferI4EdgeIcEE6_M_ptrEv, symObjAddr: 0x3F3E, symBinAddr: 0x100004D94, symSize: 0x1A }
  - { offsetInCU: 0x185FA, offset: 0x185FA, size: 0x8, addend: 0x0, symName: __ZNSt5dequeIcSaIcEE16_M_push_back_auxIJcEEEvDpOT_, symObjAddr: 0x3F58, symBinAddr: 0x100004DAE, symSize: 0x112 }
  - { offsetInCU: 0x1869A, offset: 0x1869A, size: 0x8, addend: 0x0, symName: __ZNSt8__detail19_Node_iterator_baseI4EdgeIcELb1EEC2EPNS_10_Hash_nodeIS2_Lb1EEE, symObjAddr: 0x3F24, symBinAddr: 0x100004D7A, symSize: 0x1A }
  - { offsetInCU: 0x186A2, offset: 0x186A2, size: 0x8, addend: 0x0, symName: __ZN9__gnu_cxx16__aligned_bufferI4EdgeIcEE6_M_ptrEv, symObjAddr: 0x3F3E, symBinAddr: 0x100004D94, symSize: 0x1A }
  - { offsetInCU: 0x18685, offset: 0x18685, size: 0x8, addend: 0x0, symName: __ZNSt10_HashtableIccSaIcENSt8__detail9_IdentityESt8equal_toIcESt4hashIcENS1_18_Mod_range_hashingENS1_20_Default_ranged_hashENS1_20_Prime_rehash_policyENS1_17_Hashtable_traitsILb0ELb1ELb1EEEE20_M_insert_unique_auxIRKcNS1_10_AllocNodeISaINS1_10_Hash_nodeIcLb0EEEEEEEESt4pairINS1_14_Node_iteratorIcLb1ELb0EEEbEOT_RKT0_, symObjAddr: 0x3EBA, symBinAddr: 0x100004D10, symSize: 0x6A }
  - { offsetInCU: 0x1870A, offset: 0x1870A, size: 0x8, addend: 0x0, symName: __ZNKSt8__detail19_ConvertToValueTypeINS_9_IdentityEcEclIRKcEEOT_S7_, symObjAddr: 0x3E9C, symBinAddr: 0x100004CF2, symSize: 0x1E }
  - { offsetInCU: 0x18712, offset: 0x18712, size: 0x8, addend: 0x0, symName: __ZNSt10_HashtableIccSaIcENSt8__detail9_IdentityESt8equal_toIcESt4hashIcENS1_18_Mod_range_hashingENS1_20_Default_ranged_hashENS1_20_Prime_rehash_policyENS1_17_Hashtable_traitsILb0ELb1ELb1EEEE20_M_insert_unique_auxIRKcNS1_10_AllocNodeISaINS1_10_Hash_nodeIcLb0EEEEEEEESt4pairINS1_14_Node_iteratorIcLb1ELb0EEEbEOT_RKT0_, symObjAddr: 0x3EBA, symBinAddr: 0x100004D10, symSize: 0x6A }
  - { offsetInCU: 0x187C9, offset: 0x187C9, size: 0x8, addend: 0x0, symName: __ZNSt8__detail19_Node_iterator_baseIcLb0EEC2EPNS_10_Hash_nodeIcLb0EEE, symObjAddr: 0x3E82, symBinAddr: 0x100004CD8, symSize: 0x1A }
  - { offsetInCU: 0x187D1, offset: 0x187D1, size: 0x8, addend: 0x0, symName: __ZNKSt8__detail19_ConvertToValueTypeINS_9_IdentityEcEclIRKcEEOT_S7_, symObjAddr: 0x3E9C, symBinAddr: 0x100004CF2, symSize: 0x1E }
  - { offsetInCU: 0x187BD, offset: 0x187BD, size: 0x8, addend: 0x0, symName: __ZNKSt10_HashtableIccSaIcENSt8__detail9_IdentityESt8equal_toIcESt4hashIcENS1_18_Mod_range_hashingENS1_20_Default_ranged_hashENS1_20_Prime_rehash_policyENS1_17_Hashtable_traitsILb0ELb1ELb1EEEE19_M_find_before_nodeEmRKcm, symObjAddr: 0x3DA8, symBinAddr: 0x100004BFE, symSize: 0xDA }
  - { offsetInCU: 0x18862, offset: 0x18862, size: 0x8, addend: 0x0, symName: __ZNKSt8__detail15_Hash_code_baseIccNS_9_IdentityESt4hashIcENS_18_Mod_range_hashingENS_20_Default_ranged_hashELb0EE15_M_bucket_indexEmm, symObjAddr: 0x3D7A, symBinAddr: 0x100004BD0, symSize: 0x2E }
  - { offsetInCU: 0x188B9, offset: 0x188B9, size: 0x8, addend: 0x0, symName: __ZNKSt8__detail15_Hash_code_baseIccNS_9_IdentityESt4hashIcENS_18_Mod_range_hashingENS_20_Default_ranged_hashELb0EE7_M_hashEv, symObjAddr: 0x3D60, symBinAddr: 0x100004BB6, symSize: 0x1A }
  - { offsetInCU: 0x188C1, offset: 0x188C1, size: 0x8, addend: 0x0, symName: __ZNKSt8__detail15_Hash_code_baseIccNS_9_IdentityESt4hashIcENS_18_Mod_range_hashingENS_20_Default_ranged_hashELb0EE15_M_bucket_indexEmm, symObjAddr: 0x3D7A, symBinAddr: 0x100004BD0, symSize: 0x2E }
  - { offsetInCU: 0x188E8, offset: 0x188E8, size: 0x8, addend: 0x0, symName: __ZNKSt8equal_toIcEclERKcS2_, symObjAddr: 0x3D3A, symBinAddr: 0x100004B90, symSize: 0x26 }
  - { offsetInCU: 0x1893F, offset: 0x1893F, size: 0x8, addend: 0x0, symName: __ZNKSt8__detail9_IdentityclIRKcEEOT_S5_, symObjAddr: 0x3D1C, symBinAddr: 0x100004B72, symSize: 0x1E }
  - { offsetInCU: 0x18947, offset: 0x18947, size: 0x8, addend: 0x0, symName: __ZNKSt8equal_toIcEclERKcS2_, symObjAddr: 0x3D3A, symBinAddr: 0x100004B90, symSize: 0x26 }
  - { offsetInCU: 0x1898E, offset: 0x1898E, size: 0x8, addend: 0x0, symName: __ZNKSt8__detail21_Hash_node_value_baseIcE4_M_vEv, symObjAddr: 0x3D02, symBinAddr: 0x100004B58, symSize: 0x1A }
  - { offsetInCU: 0x18996, offset: 0x18996, size: 0x8, addend: 0x0, symName: __ZNKSt8__detail9_IdentityclIRKcEEOT_S5_, symObjAddr: 0x3D1C, symBinAddr: 0x100004B72, symSize: 0x1E }
  - { offsetInCU: 0x189BD, offset: 0x189BD, size: 0x8, addend: 0x0, symName: __ZNKSt8__detail15_Hashtable_baseIccNS_9_IdentityESt8equal_toIcESt4hashIcENS_18_Mod_range_hashingENS_20_Default_ranged_hashENS_17_Hashtable_traitsILb0ELb1ELb1EEEE5_M_eqEv, symObjAddr: 0x3CE8, symBinAddr: 0x100004B3E, symSize: 0x1A }
  - { offsetInCU: 0x189C5, offset: 0x189C5, size: 0x8, addend: 0x0, symName: __ZNKSt8__detail21_Hash_node_value_baseIcE4_M_vEv, symObjAddr: 0x3D02, symBinAddr: 0x100004B58, symSize: 0x1A }
  - { offsetInCU: 0x189EC, offset: 0x189EC, size: 0x8, addend: 0x0, symName: __ZNSt8__detail19_Node_iterator_baseIcLb0EE7_M_incrEv, symObjAddr: 0x3CC2, symBinAddr: 0x100004B18, symSize: 0x26 }
  - { offsetInCU: 0x18A1B, offset: 0x18A1B, size: 0x8, addend: 0x0, symName: __ZNSt8__detail22_Hashtable_hash_traitsISt4hashIcEE22__small_size_thresholdEv, symObjAddr: 0x3CB7, symBinAddr: 0x100004B0D, symSize: 0xB }
  - { offsetInCU: 0x18A23, offset: 0x18A23, size: 0x8, addend: 0x0, symName: __ZNSt8__detail19_Node_iterator_baseIcLb0EE7_M_incrEv, symObjAddr: 0x3CC2, symBinAddr: 0x100004B18, symSize: 0x26 }
  - { offsetInCU: 0x18A6E, offset: 0x18A6E, size: 0x8, addend: 0x0, symName: __ZNSt11_Deque_baseIcSaIcEE16_M_allocate_nodeEv, symObjAddr: 0x3C7A, symBinAddr: 0x100004AD0, symSize: 0x3D }
  - { offsetInCU: 0x18A76, offset: 0x18A76, size: 0x8, addend: 0x0, symName: __ZNSt8__detail22_Hashtable_hash_traitsISt4hashIcEE22__small_size_thresholdEv, symObjAddr: 0x3CB7, symBinAddr: 0x100004B0D, symSize: 0xB }
  - { offsetInCU: 0x18ACF, offset: 0x18ACF, size: 0x8, addend: 0x0, symName: __ZNSt5dequeIcSaIcEE22_M_reserve_map_at_backEm, symObjAddr: 0x3C18, symBinAddr: 0x100004A6E, symSize: 0x62 }
  - { offsetInCU: 0x18AD7, offset: 0x18AD7, size: 0x8, addend: 0x0, symName: __ZNSt11_Deque_baseIcSaIcEE16_M_allocate_nodeEv, symObjAddr: 0x3C7A, symBinAddr: 0x100004AD0, symSize: 0x3D }
  - { offsetInCU: 0x18B12, offset: 0x18B12, size: 0x8, addend: 0x0, symName: __ZNKSt5dequeIcSaIcEE8max_sizeEv, symObjAddr: 0x3BF6, symBinAddr: 0x100004A4C, symSize: 0x22 }
  - { offsetInCU: 0x18B1A, offset: 0x18B1A, size: 0x8, addend: 0x0, symName: __ZNSt5dequeIcSaIcEE22_M_reserve_map_at_backEm, symObjAddr: 0x3C18, symBinAddr: 0x100004A6E, symSize: 0x62 }
  - { offsetInCU: 0x18B41, offset: 0x18B41, size: 0x8, addend: 0x0, symName: __ZNKSt5dequeIcSaIcEE4sizeEv, symObjAddr: 0x3BCC, symBinAddr: 0x100004A22, symSize: 0x2A }
  - { offsetInCU: 0x18C12, offset: 0x18C12, size: 0x8, addend: 0x0, symName: __ZSt7forwardIRKcEOT_RNSt16remove_referenceIS2_E4typeE, symObjAddr: 0x3BBE, symBinAddr: 0x100004A14, symSize: 0xE }
  - { offsetInCU: 0x18C1A, offset: 0x18C1A, size: 0x8, addend: 0x0, symName: __ZNKSt5dequeIcSaIcEE4sizeEv, symObjAddr: 0x3BCC, symBinAddr: 0x100004A22, symSize: 0x2A }
  - { offsetInCU: 0x18C17, offset: 0x18C17, size: 0x8, addend: 0x0, symName: __ZNSt8__detail16_Hashtable_allocISaINS_10_Hash_nodeIcLb0EEEEE21_M_deallocate_bucketsEPPNS_15_Hash_node_baseEm, symObjAddr: 0x3B48, symBinAddr: 0x10000499E, symSize: 0x76 }
  - { offsetInCU: 0x18C1F, offset: 0x18C1F, size: 0x8, addend: 0x0, symName: __ZSt7forwardIRKcEOT_RNSt16remove_referenceIS2_E4typeE, symObjAddr: 0x3BBE, symBinAddr: 0x100004A14, symSize: 0xE }
  - { offsetInCU: 0x18D4C, offset: 0x18D4C, size: 0x8, addend: 0x0, symName: __ZNKSt10_HashtableIccSaIcENSt8__detail9_IdentityESt8equal_toIcESt4hashIcENS1_18_Mod_range_hashingENS1_20_Default_ranged_hashENS1_20_Prime_rehash_policyENS1_17_Hashtable_traitsILb0ELb1ELb1EEEE21_M_uses_single_bucketEPPNS1_15_Hash_node_baseE, symObjAddr: 0x3B22, symBinAddr: 0x100004978, symSize: 0x26 }
  - { offsetInCU: 0x18D54, offset: 0x18D54, size: 0x8, addend: 0x0, symName: __ZNSt8__detail16_Hashtable_allocISaINS_10_Hash_nodeIcLb0EEEEE21_M_deallocate_bucketsEPPNS_15_Hash_node_baseEm, symObjAddr: 0x3B48, symBinAddr: 0x10000499E, symSize: 0x76 }
  - { offsetInCU: 0x18D8F, offset: 0x18D8F, size: 0x8, addend: 0x0, symName: __ZNSt8__detail16_Hashtable_allocISaINS_10_Hash_nodeIcLb0EEEEE18_M_deallocate_nodeEPS2_, symObjAddr: 0x3ABE, symBinAddr: 0x100004914, symSize: 0x64 }
  - { offsetInCU: 0x18D97, offset: 0x18D97, size: 0x8, addend: 0x0, symName: __ZNKSt10_HashtableIccSaIcENSt8__detail9_IdentityESt8equal_toIcESt4hashIcENS1_18_Mod_range_hashingENS1_20_Default_ranged_hashENS1_20_Prime_rehash_policyENS1_17_Hashtable_traitsILb0ELb1ELb1EEEE21_M_uses_single_bucketEPPNS1_15_Hash_node_baseE, symObjAddr: 0x3B22, symBinAddr: 0x100004978, symSize: 0x26 }
  - { offsetInCU: 0x18E38, offset: 0x18E38, size: 0x8, addend: 0x0, symName: __ZNKSt8__detail10_Hash_nodeIcLb0EE7_M_nextEv, symObjAddr: 0x3AAC, symBinAddr: 0x100004902, symSize: 0x12 }
  - { offsetInCU: 0x18ECC, offset: 0x18ECC, size: 0x8, addend: 0x0, symName: __ZNKSt11_Deque_baseIcSaIcEE20_M_get_map_allocatorEv, symObjAddr: 0x3A72, symBinAddr: 0x1000048C8, symSize: 0x3A }
  - { offsetInCU: 0x18F53, offset: 0x18F53, size: 0x8, addend: 0x0, symName: __ZNSt11_Deque_baseIcSaIcEE18_M_deallocate_nodeEPc, symObjAddr: 0x3A28, symBinAddr: 0x10000487E, symSize: 0x4A }
  - { offsetInCU: 0x18FD4, offset: 0x18FD4, size: 0x8, addend: 0x0, symName: __ZNSt15_Deque_iteratorIcRcPcE11_M_set_nodeEPS1_, symObjAddr: 0x39DC, symBinAddr: 0x100004832, symSize: 0x4C }
  - { offsetInCU: 0x18FDC, offset: 0x18FDC, size: 0x8, addend: 0x0, symName: __ZNSt11_Deque_baseIcSaIcEE18_M_deallocate_nodeEPc, symObjAddr: 0x3A28, symBinAddr: 0x10000487E, symSize: 0x4A }
  - { offsetInCU: 0x19017, offset: 0x19017, size: 0x8, addend: 0x0, symName: __ZNSt11_Deque_baseIcSaIcEE15_M_create_nodesEPPcS3_, symObjAddr: 0x395C, symBinAddr: 0x1000047B2, symSize: 0x80 }
  - { offsetInCU: 0x1901F, offset: 0x1901F, size: 0x8, addend: 0x0, symName: __ZNSt15_Deque_iteratorIcRcPcE11_M_set_nodeEPS1_, symObjAddr: 0x39DC, symBinAddr: 0x100004832, symSize: 0x4C }
  - { offsetInCU: 0x19083, offset: 0x19083, size: 0x8, addend: 0x0, symName: __ZNSt11_Deque_baseIcSaIcEE15_M_allocate_mapEm, symObjAddr: 0x38E0, symBinAddr: 0x100004736, symSize: 0x7C }
  - { offsetInCU: 0x1908B, offset: 0x1908B, size: 0x8, addend: 0x0, symName: __ZNSt11_Deque_baseIcSaIcEE15_M_create_nodesEPPcS3_, symObjAddr: 0x395C, symBinAddr: 0x1000047B2, symSize: 0x80 }
  - { offsetInCU: 0x19194, offset: 0x19194, size: 0x8, addend: 0x0, symName: __ZNSt15__new_allocatorIcED2Ev, symObjAddr: 0x38D4, symBinAddr: 0x10000472A, symSize: 0xC }
  - { offsetInCU: 0x191EE, offset: 0x191EE, size: 0x8, addend: 0x0, symName: __ZNSt11_Deque_baseIcSaIcEE16_Deque_impl_dataC2Ev, symObjAddr: 0x388E, symBinAddr: 0x1000046E4, symSize: 0x46 }
  - { offsetInCU: 0x191F6, offset: 0x191F6, size: 0x8, addend: 0x0, symName: __ZNSt15__new_allocatorIcED2Ev, symObjAddr: 0x38D4, symBinAddr: 0x10000472A, symSize: 0xC }
  - { offsetInCU: 0x19204, offset: 0x19204, size: 0x8, addend: 0x0, symName: __ZNSt9_Any_data9_M_accessIZ4mainEUlcE_EERT_v, symObjAddr: 0x3874, symBinAddr: 0x1000046CA, symSize: 0x1A }
  - { offsetInCU: 0x1920C, offset: 0x1920C, size: 0x8, addend: 0x0, symName: __ZNSt11_Deque_baseIcSaIcEE16_Deque_impl_dataC2Ev, symObjAddr: 0x388E, symBinAddr: 0x1000046E4, symSize: 0x46 }
  - { offsetInCU: 0x19240, offset: 0x19240, size: 0x8, addend: 0x0, symName: __ZNSt14_Function_base13_Base_managerIZ4mainEUlcE_E9_M_createIRKS1_EEvRSt9_Any_dataOT_St17integral_constantIbLb1EE, symObjAddr: 0x383B, symBinAddr: 0x100004691, symSize: 0x39 }
  - { offsetInCU: 0x192C7, offset: 0x192C7, size: 0x8, addend: 0x0, symName: __ZSt7forwardIRKZ4mainEUlcE_EOT_RNSt16remove_referenceIS3_E4typeE, symObjAddr: 0x382D, symBinAddr: 0x100004683, symSize: 0xE }
  - { offsetInCU: 0x192CF, offset: 0x192CF, size: 0x8, addend: 0x0, symName: __ZNSt14_Function_base13_Base_managerIZ4mainEUlcE_E9_M_createIRKS1_EEvRSt9_Any_dataOT_St17integral_constantIbLb1EE, symObjAddr: 0x383B, symBinAddr: 0x100004691, symSize: 0x39 }
  - { offsetInCU: 0x192EC, offset: 0x192EC, size: 0x8, addend: 0x0, symName: __ZNSt10_HashtableI4EdgeIcES1_SaIS1_ENSt8__detail9_IdentityESt8equal_toIS1_ESt4hashIS1_ENS3_18_Mod_range_hashingENS3_20_Default_ranged_hashENS3_20_Prime_rehash_policyENS3_17_Hashtable_traitsILb1ELb1ELb1EEEE20_M_insert_unique_auxIS1_NS3_10_AllocNodeISaINS3_10_Hash_nodeIS1_Lb1EEEEEEEESt4pairINS3_14_Node_iteratorIS1_Lb1ELb1EEEbEOT_RKT0_, symObjAddr: 0x37C4, symBinAddr: 0x10000461A, symSize: 0x69 }
  - { offsetInCU: 0x192F4, offset: 0x192F4, size: 0x8, addend: 0x0, symName: __ZSt7forwardIRKZ4mainEUlcE_EOT_RNSt16remove_referenceIS3_E4typeE, symObjAddr: 0x382D, symBinAddr: 0x100004683, symSize: 0xE }
  - { offsetInCU: 0x19371, offset: 0x19371, size: 0x8, addend: 0x0, symName: __ZNKSt8__detail19_ConvertToValueTypeINS_9_IdentityE4EdgeIcEEclIS3_EEOT_S7_, symObjAddr: 0x37A6, symBinAddr: 0x1000045FC, symSize: 0x1E }
  - { offsetInCU: 0x19379, offset: 0x19379, size: 0x8, addend: 0x0, symName: __ZNSt10_HashtableI4EdgeIcES1_SaIS1_ENSt8__detail9_IdentityESt8equal_toIS1_ESt4hashIS1_ENS3_18_Mod_range_hashingENS3_20_Default_ranged_hashENS3_20_Prime_rehash_policyENS3_17_Hashtable_traitsILb1ELb1ELb1EEEE20_M_insert_unique_auxIS1_NS3_10_AllocNodeISaINS3_10_Hash_nodeIS1_Lb1EEEEEEEESt4pairINS3_14_Node_iteratorIS1_Lb1ELb1EEEbEOT_RKT0_, symObjAddr: 0x37C4, symBinAddr: 0x10000461A, symSize: 0x69 }
  - { offsetInCU: 0x19414, offset: 0x19414, size: 0x8, addend: 0x0, symName: __ZSt7forwardI4EdgeIcEEOT_RNSt16remove_referenceIS2_E4typeE, symObjAddr: 0x3798, symBinAddr: 0x1000045EE, symSize: 0xE }
  - { offsetInCU: 0x1941C, offset: 0x1941C, size: 0x8, addend: 0x0, symName: __ZNKSt8__detail19_ConvertToValueTypeINS_9_IdentityE4EdgeIcEEclIS3_EEOT_S7_, symObjAddr: 0x37A6, symBinAddr: 0x1000045FC, symSize: 0x1E }
  - { offsetInCU: 0x19414, offset: 0x19414, size: 0x8, addend: 0x0, symName: __ZNSt10_HashtableI4EdgeIcES1_SaIS1_ENSt8__detail9_IdentityESt8equal_toIS1_ESt4hashIS1_ENS3_18_Mod_range_hashingENS3_20_Default_ranged_hashENS3_20_Prime_rehash_policyENS3_17_Hashtable_traitsILb1ELb1ELb1EEEE8_M_eraseEmPNS3_15_Hash_node_baseEPNS3_10_Hash_nodeIS1_Lb1EEE, symObjAddr: 0x365C, symBinAddr: 0x1000044B2, symSize: 0x13C }
  - { offsetInCU: 0x1941C, offset: 0x1941C, size: 0x8, addend: 0x0, symName: __ZSt7forwardI4EdgeIcEEOT_RNSt16remove_referenceIS2_E4typeE, symObjAddr: 0x3798, symBinAddr: 0x1000045EE, symSize: 0xE }
  - { offsetInCU: 0x194BB, offset: 0x194BB, size: 0x8, addend: 0x0, symName: __ZNKSt10_HashtableI4EdgeIcES1_SaIS1_ENSt8__detail9_IdentityESt8equal_toIS1_ESt4hashIS1_ENS3_18_Mod_range_hashingENS3_20_Default_ranged_hashENS3_20_Prime_rehash_policyENS3_17_Hashtable_traitsILb1ELb1ELb1EEEE19_M_find_before_nodeEmRKS1_m, symObjAddr: 0x3582, symBinAddr: 0x1000043D8, symSize: 0xDA }
  - { offsetInCU: 0x19560, offset: 0x19560, size: 0x8, addend: 0x0, symName: __ZNKSt10_HashtableI4EdgeIcES1_SaIS1_ENSt8__detail9_IdentityESt8equal_toIS1_ESt4hashIS1_ENS3_18_Mod_range_hashingENS3_20_Default_ranged_hashENS3_20_Prime_rehash_policyENS3_17_Hashtable_traitsILb1ELb1ELb1EEEE15_M_bucket_indexEm, symObjAddr: 0x3554, symBinAddr: 0x1000043AA, symSize: 0x2E }
  - { offsetInCU: 0x195A3, offset: 0x195A3, size: 0x8, addend: 0x0, symName: __ZNKSt8__detail15_Hash_code_baseI4EdgeIcES2_NS_9_IdentityESt4hashIS2_ENS_18_Mod_range_hashingENS_20_Default_ranged_hashELb1EE12_M_hash_codeERKS2_, symObjAddr: 0x3524, symBinAddr: 0x10000437A, symSize: 0x30 }
  - { offsetInCU: 0x195AB, offset: 0x195AB, size: 0x8, addend: 0x0, symName: __ZNKSt10_HashtableI4EdgeIcES1_SaIS1_ENSt8__detail9_IdentityESt8equal_toIS1_ESt4hashIS1_ENS3_18_Mod_range_hashingENS3_20_Default_ranged_hashENS3_20_Prime_rehash_policyENS3_17_Hashtable_traitsILb1ELb1ELb1EEEE15_M_bucket_indexEm, symObjAddr: 0x3554, symBinAddr: 0x1000043AA, symSize: 0x2E }
  - { offsetInCU: 0x195E6, offset: 0x195E6, size: 0x8, addend: 0x0, symName: __ZNKSt10_HashtableI4EdgeIcES1_SaIS1_ENSt8__detail9_IdentityESt8equal_toIS1_ESt4hashIS1_ENS3_18_Mod_range_hashingENS3_20_Default_ranged_hashENS3_20_Prime_rehash_policyENS3_17_Hashtable_traitsILb1ELb1ELb1EEEE15_M_bucket_indexERKNS3_16_Hash_node_valueIS1_Lb1EEE, symObjAddr: 0x34F6, symBinAddr: 0x10000434C, symSize: 0x2E }
  - { offsetInCU: 0x19629, offset: 0x19629, size: 0x8, addend: 0x0, symName: __ZNSt10_HashtableI4EdgeIcES1_SaIS1_ENSt8__detail9_IdentityESt8equal_toIS1_ESt4hashIS1_ENS3_18_Mod_range_hashingENS3_20_Default_ranged_hashENS3_20_Prime_rehash_policyENS3_17_Hashtable_traitsILb1ELb1ELb1EEEE19_M_find_before_nodeERKS1_, symObjAddr: 0x346E, symBinAddr: 0x1000042C4, symSize: 0x88 }
  - { offsetInCU: 0x196A6, offset: 0x196A6, size: 0x8, addend: 0x0, symName: __ZNSt10_HashtableI4EdgeIcES1_SaIS1_ENSt8__detail9_IdentityESt8equal_toIS1_ESt4hashIS1_ENS3_18_Mod_range_hashingENS3_20_Default_ranged_hashENS3_20_Prime_rehash_policyENS3_17_Hashtable_traitsILb1ELb1ELb1EEEE22__small_size_thresholdEv, symObjAddr: 0x3462, symBinAddr: 0x1000042B8, symSize: 0xC }
  - { offsetInCU: 0x196C3, offset: 0x196C3, size: 0x8, addend: 0x0, symName: __ZNSt10_HashtableI4EdgeIcES1_SaIS1_ENSt8__detail9_IdentityESt8equal_toIS1_ESt4hashIS1_ENS3_18_Mod_range_hashingENS3_20_Default_ranged_hashENS3_20_Prime_rehash_policyENS3_17_Hashtable_traitsILb1ELb1ELb1EEEE8_M_resetEv, symObjAddr: 0x3404, symBinAddr: 0x10000425A, symSize: 0x5E }
  - { offsetInCU: 0x196CB, offset: 0x196CB, size: 0x8, addend: 0x0, symName: __ZNSt10_HashtableI4EdgeIcES1_SaIS1_ENSt8__detail9_IdentityESt8equal_toIS1_ESt4hashIS1_ENS3_18_Mod_range_hashingENS3_20_Default_ranged_hashENS3_20_Prime_rehash_policyENS3_17_Hashtable_traitsILb1ELb1ELb1EEEE22__small_size_thresholdEv, symObjAddr: 0x3462, symBinAddr: 0x1000042B8, symSize: 0xC }
  - { offsetInCU: 0x196F2, offset: 0x196F2, size: 0x8, addend: 0x0, symName: __ZNSt10_HashtableI4EdgeIcES1_SaIS1_ENSt8__detail9_IdentityESt8equal_toIS1_ESt4hashIS1_ENS3_18_Mod_range_hashingENS3_20_Default_ranged_hashENS3_20_Prime_rehash_policyENS3_17_Hashtable_traitsILb1ELb1ELb1EEEE16_M_update_bbeginEv, symObjAddr: 0x339C, symBinAddr: 0x1000041F2, symSize: 0x68 }
  - { offsetInCU: 0x19760, offset: 0x19760, size: 0x8, addend: 0x0, symName: __ZNSt8__detail16_Hashtable_allocISaINS_10_Hash_nodeI4EdgeIcELb1EEEEE17_M_node_allocatorEv, symObjAddr: 0x3382, symBinAddr: 0x1000041D8, symSize: 0x1A }
  - { offsetInCU: 0x19768, offset: 0x19768, size: 0x8, addend: 0x0, symName: __ZNSt10_HashtableI4EdgeIcES1_SaIS1_ENSt8__detail9_IdentityESt8equal_toIS1_ESt4hashIS1_ENS3_18_Mod_range_hashingENS3_20_Default_ranged_hashENS3_20_Prime_rehash_policyENS3_17_Hashtable_traitsILb1ELb1ELb1EEEE16_M_update_bbeginEv, symObjAddr: 0x339C, symBinAddr: 0x1000041F2, symSize: 0x68 }
  - { offsetInCU: 0x1978F, offset: 0x1978F, size: 0x8, addend: 0x0, symName: __ZNKSt10_HashtableI4EdgeIcES1_SaIS1_ENSt8__detail9_IdentityESt8equal_toIS1_ESt4hashIS1_ENS3_18_Mod_range_hashingENS3_20_Default_ranged_hashENS3_20_Prime_rehash_policyENS3_17_Hashtable_traitsILb1ELb1ELb1EEEE21_M_uses_single_bucketEv, symObjAddr: 0x335E, symBinAddr: 0x1000041B4, symSize: 0x24 }
  - { offsetInCU: 0x19797, offset: 0x19797, size: 0x8, addend: 0x0, symName: __ZNSt8__detail16_Hashtable_allocISaINS_10_Hash_nodeI4EdgeIcELb1EEEEE17_M_node_allocatorEv, symObjAddr: 0x3382, symBinAddr: 0x1000041D8, symSize: 0x1A }
  - { offsetInCU: 0x199EA, offset: 0x199EA, size: 0x8, addend: 0x0, symName: __ZSt11__addressofISt10_HashtableI4EdgeIcES2_SaIS2_ENSt8__detail9_IdentityESt8equal_toIS2_ESt4hashIS2_ENS4_18_Mod_range_hashingENS4_20_Default_ranged_hashENS4_20_Prime_rehash_policyENS4_17_Hashtable_traitsILb1ELb1ELb1EEEEEPT_RSG_, symObjAddr: 0x334F, symBinAddr: 0x1000041A5, symSize: 0xF }
  - { offsetInCU: 0x19808, offset: 0x19808, size: 0x8, addend: 0x0, symName: __ZNSt10_HashtableI4EdgeIcES1_SaIS1_ENSt8__detail9_IdentityESt8equal_toIS1_ESt4hashIS1_ENS3_18_Mod_range_hashingENS3_20_Default_ranged_hashENS3_20_Prime_rehash_policyENS3_17_Hashtable_traitsILb1ELb1ELb1EEEE21_M_deallocate_bucketsEPPNS3_15_Hash_node_baseEm, symObjAddr: 0x3308, symBinAddr: 0x10000415E, symSize: 0x47 }
  - { offsetInCU: 0x19810, offset: 0x19810, size: 0x8, addend: 0x0, symName: __ZSt11__addressofISt10_HashtableI4EdgeIcES2_SaIS2_ENSt8__detail9_IdentityESt8equal_toIS2_ESt4hashIS2_ENS4_18_Mod_range_hashingENS4_20_Default_ranged_hashENS4_20_Prime_rehash_policyENS4_17_Hashtable_traitsILb1ELb1ELb1EEEEEPT_RSG_, symObjAddr: 0x334F, symBinAddr: 0x1000041A5, symSize: 0xF }
  - { offsetInCU: 0x1985F, offset: 0x1985F, size: 0x8, addend: 0x0, symName: __ZNSt8__detail16_Hashtable_allocISaINS_10_Hash_nodeI4EdgeIcELb1EEEEE19_M_deallocate_nodesEPS4_, symObjAddr: 0x32C0, symBinAddr: 0x100004116, symSize: 0x48 }
  - { offsetInCU: 0x19867, offset: 0x19867, size: 0x8, addend: 0x0, symName: __ZNSt10_HashtableI4EdgeIcES1_SaIS1_ENSt8__detail9_IdentityESt8equal_toIS1_ESt4hashIS1_ENS3_18_Mod_range_hashingENS3_20_Default_ranged_hashENS3_20_Prime_rehash_policyENS3_17_Hashtable_traitsILb1ELb1ELb1EEEE21_M_deallocate_bucketsEPPNS3_15_Hash_node_baseEm, symObjAddr: 0x3308, symBinAddr: 0x10000415E, symSize: 0x47 }
  - { offsetInCU: 0x198E1, offset: 0x198E1, size: 0x8, addend: 0x0, symName: __ZNSt10_HashtableIcSt4pairIKcSt13unordered_setI4EdgeIcESt4hashIS4_ESt8equal_toIS4_ESaIS4_EEESaISB_ENSt8__detail10_Select1stES7_IcES5_IcENSD_18_Mod_range_hashingENSD_20_Default_ranged_hashENSD_20_Prime_rehash_policyENSD_17_Hashtable_traitsILb0ELb0ELb1EEEE21_M_insert_unique_nodeEmmPNSD_10_Hash_nodeISB_Lb0EEEm, symObjAddr: 0x31C2, symBinAddr: 0x100004018, symSize: 0xFE }
  - { offsetInCU: 0x19AC5, offset: 0x19AC5, size: 0x8, addend: 0x0, symName: __ZNSt10_HashtableIcSt4pairIKcSt13unordered_setI4EdgeIcESt4hashIS4_ESt8equal_toIS4_ESaIS4_EEESaISB_ENSt8__detail10_Select1stES7_IcES5_IcENSD_18_Mod_range_hashingENSD_20_Default_ranged_hashENSD_20_Prime_rehash_policyENSD_17_Hashtable_traitsILb0ELb0ELb1EEEE12_Scoped_nodeD1Ev, symObjAddr: 0x318C, symBinAddr: 0x100003FE2, symSize: 0x36 }
  - { offsetInCU: 0x19ACD, offset: 0x19ACD, size: 0x8, addend: 0x0, symName: __ZNSt10_HashtableIcSt4pairIKcSt13unordered_setI4EdgeIcESt4hashIS4_ESt8equal_toIS4_ESaIS4_EEESaISB_ENSt8__detail10_Select1stES7_IcES5_IcENSD_18_Mod_range_hashingENSD_20_Default_ranged_hashENSD_20_Prime_rehash_policyENSD_17_Hashtable_traitsILb0ELb0ELb1EEEE21_M_insert_unique_nodeEmmPNSD_10_Hash_nodeISB_Lb0EEEm, symObjAddr: 0x31C2, symBinAddr: 0x100004018, symSize: 0xFE }
  - { offsetInCU: 0x19BD1, offset: 0x19BD1, size: 0x8, addend: 0x0, symName: __ZNSt10_HashtableIcSt4pairIKcSt13unordered_setI4EdgeIcESt4hashIS4_ESt8equal_toIS4_ESaIS4_EEESaISB_ENSt8__detail10_Select1stES7_IcES5_IcENSD_18_Mod_range_hashingENSD_20_Default_ranged_hashENSD_20_Prime_rehash_policyENSD_17_Hashtable_traitsILb0ELb0ELb1EEEE12_Scoped_nodeC1IJRKSt21piecewise_construct_tSt5tupleIJRS1_EESS_IJEEEEEPNSD_16_Hashtable_allocISaINSD_10_Hash_nodeISB_Lb0EEEEEEDpOT_, symObjAddr: 0x310C, symBinAddr: 0x100003F62, symSize: 0x80 }
  - { offsetInCU: 0x19B32, offset: 0x19B32, size: 0x8, addend: 0x0, symName: __ZNSt5tupleIJRKcEEC1ILb1ELb1EEES1_, symObjAddr: 0x30E6, symBinAddr: 0x100003F3C, symSize: 0x26 }
  - { offsetInCU: 0x19B3A, offset: 0x19B3A, size: 0x8, addend: 0x0, symName: __ZNSt10_HashtableIcSt4pairIKcSt13unordered_setI4EdgeIcESt4hashIS4_ESt8equal_toIS4_ESaIS4_EEESaISB_ENSt8__detail10_Select1stES7_IcES5_IcENSD_18_Mod_range_hashingENSD_20_Default_ranged_hashENSD_20_Prime_rehash_policyENSD_17_Hashtable_traitsILb0ELb0ELb1EEEE12_Scoped_nodeC1IJRKSt21piecewise_construct_tSt5tupleIJRS1_EESS_IJEEEEEPNSD_16_Hashtable_allocISaINSD_10_Hash_nodeISB_Lb0EEEEEEDpOT_, symObjAddr: 0x310C, symBinAddr: 0x100003F62, symSize: 0x80 }
  - { offsetInCU: 0x19B58, offset: 0x19B58, size: 0x8, addend: 0x0, symName: __ZNSt8__detail21_Hash_node_value_baseISt4pairIKcSt13unordered_setI4EdgeIcESt4hashIS5_ESt8equal_toIS5_ESaIS5_EEEE4_M_vEv, symObjAddr: 0x30CC, symBinAddr: 0x100003F22, symSize: 0x1A }
  - { offsetInCU: 0x19B60, offset: 0x19B60, size: 0x8, addend: 0x0, symName: __ZNSt5tupleIJRKcEEC1ILb1ELb1EEES1_, symObjAddr: 0x30E6, symBinAddr: 0x100003F3C, symSize: 0x26 }
  - { offsetInCU: 0x19C40, offset: 0x19C40, size: 0x8, addend: 0x0, symName: __ZNSt8__detail14_Node_iteratorISt4pairIKcSt13unordered_setI4EdgeIcESt4hashIS5_ESt8equal_toIS5_ESaIS5_EEELb0ELb0EEC1EPNS_10_Hash_nodeISC_Lb0EEE, symObjAddr: 0x30A6, symBinAddr: 0x100003EFC, symSize: 0x26 }
  - { offsetInCU: 0x19C48, offset: 0x19C48, size: 0x8, addend: 0x0, symName: __ZNSt8__detail21_Hash_node_value_baseISt4pairIKcSt13unordered_setI4EdgeIcESt4hashIS5_ESt8equal_toIS5_ESaIS5_EEEE4_M_vEv, symObjAddr: 0x30CC, symBinAddr: 0x100003F22, symSize: 0x1A }
  - { offsetInCU: 0x19BEB, offset: 0x19BEB, size: 0x8, addend: 0x0, symName: __ZNKSt10_HashtableIcSt4pairIKcSt13unordered_setI4EdgeIcESt4hashIS4_ESt8equal_toIS4_ESaIS4_EEESaISB_ENSt8__detail10_Select1stES7_IcES5_IcENSD_18_Mod_range_hashingENSD_20_Default_ranged_hashENSD_20_Prime_rehash_policyENSD_17_Hashtable_traitsILb0ELb0ELb1EEEE12_M_find_nodeEmRS1_m, symObjAddr: 0x305A, symBinAddr: 0x100003EB0, symSize: 0x4C }
  - { offsetInCU: 0x19C6A, offset: 0x19C6A, size: 0x8, addend: 0x0, symName: __ZNKSt10_HashtableIcSt4pairIKcSt13unordered_setI4EdgeIcESt4hashIS4_ESt8equal_toIS4_ESaIS4_EEESaISB_ENSt8__detail10_Select1stES7_IcES5_IcENSD_18_Mod_range_hashingENSD_20_Default_ranged_hashENSD_20_Prime_rehash_policyENSD_17_Hashtable_traitsILb0ELb0ELb1EEEE15_M_bucket_indexEm, symObjAddr: 0x302C, symBinAddr: 0x100003E82, symSize: 0x2E }
  - { offsetInCU: 0x19CAD, offset: 0x19CAD, size: 0x8, addend: 0x0, symName: __ZNKSt8__detail15_Hash_code_baseIcSt4pairIKcSt13unordered_setI4EdgeIcESt4hashIS5_ESt8equal_toIS5_ESaIS5_EEENS_10_Select1stES6_IcENS_18_Mod_range_hashingENS_20_Default_ranged_hashELb0EE12_M_hash_codeERS2_, symObjAddr: 0x2FF6, symBinAddr: 0x100003E4C, symSize: 0x36 }
  - { offsetInCU: 0x19CF0, offset: 0x19CF0, size: 0x8, addend: 0x0, symName: __ZNKSt8__detail15_Hashtable_baseIcSt4pairIKcSt13unordered_setI4EdgeIcESt4hashIS5_ESt8equal_toIS5_ESaIS5_EEENS_10_Select1stES8_IcES6_IcENS_18_Mod_range_hashingENS_20_Default_ranged_hashENS_17_Hashtable_traitsILb0ELb0ELb1EEEE13_M_key_equalsERS2_RKNS_16_Hash_node_valueISC_Lb0EEE, symObjAddr: 0x2F9C, symBinAddr: 0x100003DF2, symSize: 0x5A }
  - { offsetInCU: 0x19CF8, offset: 0x19CF8, size: 0x8, addend: 0x0, symName: __ZNKSt8__detail15_Hash_code_baseIcSt4pairIKcSt13unordered_setI4EdgeIcESt4hashIS5_ESt8equal_toIS5_ESaIS5_EEENS_10_Select1stES6_IcENS_18_Mod_range_hashingENS_20_Default_ranged_hashELb0EE12_M_hash_codeERS2_, symObjAddr: 0x2FF6, symBinAddr: 0x100003E4C, symSize: 0x36 }
  - { offsetInCU: 0x19D48, offset: 0x19D48, size: 0x8, addend: 0x0, symName: __ZNSt8__detail14_Node_iteratorISt4pairIKcSt13unordered_setI4EdgeIcESt4hashIS5_ESt8equal_toIS5_ESaIS5_EEELb0ELb0EEppEv, symObjAddr: 0x2F7E, symBinAddr: 0x100003DD4, symSize: 0x1E }
  - { offsetInCU: 0x19D50, offset: 0x19D50, size: 0x8, addend: 0x0, symName: __ZNKSt8__detail15_Hashtable_baseIcSt4pairIKcSt13unordered_setI4EdgeIcESt4hashIS5_ESt8equal_toIS5_ESaIS5_EEENS_10_Select1stES8_IcES6_IcENS_18_Mod_range_hashingENS_20_Default_ranged_hashENS_17_Hashtable_traitsILb0ELb0ELb1EEEE13_M_key_equalsERS2_RKNS_16_Hash_node_valueISC_Lb0EEE, symObjAddr: 0x2F9C, symBinAddr: 0x100003DF2, symSize: 0x5A }
  - { offsetInCU: 0x19D77, offset: 0x19D77, size: 0x8, addend: 0x0, symName: __ZNSt10_HashtableIcSt4pairIKcSt13unordered_setI4EdgeIcESt4hashIS4_ESt8equal_toIS4_ESaIS4_EEESaISB_ENSt8__detail10_Select1stES7_IcES5_IcENSD_18_Mod_range_hashingENSD_20_Default_ranged_hashENSD_20_Prime_rehash_policyENSD_17_Hashtable_traitsILb0ELb0ELb1EEEE5beginEv, symObjAddr: 0x2F4E, symBinAddr: 0x100003DA4, symSize: 0x30 }
  - { offsetInCU: 0x19D7F, offset: 0x19D7F, size: 0x8, addend: 0x0, symName: __ZNSt8__detail14_Node_iteratorISt4pairIKcSt13unordered_setI4EdgeIcESt4hashIS5_ESt8equal_toIS5_ESaIS5_EEELb0ELb0EEppEv, symObjAddr: 0x2F7E, symBinAddr: 0x100003DD4, symSize: 0x1E }
  - { offsetInCU: 0x19DA6, offset: 0x19DA6, size: 0x8, addend: 0x0, symName: __ZNSt10_HashtableIcSt4pairIKcSt13unordered_setI4EdgeIcESt4hashIS4_ESt8equal_toIS4_ESaIS4_EEESaISB_ENSt8__detail10_Select1stES7_IcES5_IcENSD_18_Mod_range_hashingENSD_20_Default_ranged_hashENSD_20_Prime_rehash_policyENSD_17_Hashtable_traitsILb0ELb0ELb1EEEE22__small_size_thresholdEv, symObjAddr: 0x2F42, symBinAddr: 0x100003D98, symSize: 0xC }
  - { offsetInCU: 0x19DC3, offset: 0x19DC3, size: 0x8, addend: 0x0, symName: __ZNKSt10_HashtableIcSt4pairIKcSt13unordered_setI4EdgeIcESt4hashIS4_ESt8equal_toIS4_ESaIS4_EEESaISB_ENSt8__detail10_Select1stES7_IcES5_IcENSD_18_Mod_range_hashingENSD_20_Default_ranged_hashENSD_20_Prime_rehash_policyENSD_17_Hashtable_traitsILb0ELb0ELb1EEEE4sizeEv, symObjAddr: 0x2F30, symBinAddr: 0x100003D86, symSize: 0x12 }
  - { offsetInCU: 0x19DCB, offset: 0x19DCB, size: 0x8, addend: 0x0, symName: __ZNSt10_HashtableIcSt4pairIKcSt13unordered_setI4EdgeIcESt4hashIS4_ESt8equal_toIS4_ESaIS4_EEESaISB_ENSt8__detail10_Select1stES7_IcES5_IcENSD_18_Mod_range_hashingENSD_20_Default_ranged_hashENSD_20_Prime_rehash_policyENSD_17_Hashtable_traitsILb0ELb0ELb1EEEE22__small_size_thresholdEv, symObjAddr: 0x2F42, symBinAddr: 0x100003D98, symSize: 0xC }
  - { offsetInCU: 0x19E86, offset: 0x19E86, size: 0x8, addend: 0x0, symName: __ZNSt19__ptr_traits_ptr_toIPPNSt8__detail15_Hash_node_baseES2_Lb0EE10pointer_toERS2_, symObjAddr: 0x2F15, symBinAddr: 0x100003D6B, symSize: 0x1B }
  - { offsetInCU: 0x19EB7, offset: 0x19EB7, size: 0x8, addend: 0x0, symName: __ZNSt8__detail16_Hashtable_allocISaINS_10_Hash_nodeISt4pairIKcSt13unordered_setI4EdgeIcESt4hashIS6_ESt8equal_toIS6_ESaIS6_EEELb0EEEEE22_M_deallocate_node_ptrEPSE_, symObjAddr: 0x2EBA, symBinAddr: 0x100003D10, symSize: 0x5B }
  - { offsetInCU: 0x19EBF, offset: 0x19EBF, size: 0x8, addend: 0x0, symName: __ZNSt19__ptr_traits_ptr_toIPPNSt8__detail15_Hash_node_baseES2_Lb0EE10pointer_toERS2_, symObjAddr: 0x2F15, symBinAddr: 0x100003D6B, symSize: 0x1B }
  - { offsetInCU: 0x19F86, offset: 0x19F86, size: 0x8, addend: 0x0, symName: __ZNSt8__detail21_Hash_node_value_baseISt4pairIKcSt13unordered_setI4EdgeIcESt4hashIS5_ESt8equal_toIS5_ESaIS5_EEEE9_M_valptrEv, symObjAddr: 0x2EA0, symBinAddr: 0x100003CF6, symSize: 0x1A }
  - { offsetInCU: 0x19F8E, offset: 0x19F8E, size: 0x8, addend: 0x0, symName: __ZNSt8__detail16_Hashtable_allocISaINS_10_Hash_nodeISt4pairIKcSt13unordered_setI4EdgeIcESt4hashIS6_ESt8equal_toIS6_ESaIS6_EEELb0EEEEE22_M_deallocate_node_ptrEPSE_, symObjAddr: 0x2EBA, symBinAddr: 0x100003D10, symSize: 0x5B }
  - { offsetInCU: 0x19FB5, offset: 0x19FB5, size: 0x8, addend: 0x0, symName: __ZNSt8__detail16_Hashtable_allocISaINS_10_Hash_nodeISt4pairIKcSt13unordered_setI4EdgeIcESt4hashIS6_ESt8equal_toIS6_ESaIS6_EEELb0EEEEE17_M_node_allocatorEv, symObjAddr: 0x2E86, symBinAddr: 0x100003CDC, symSize: 0x1A }
  - { offsetInCU: 0x19FBD, offset: 0x19FBD, size: 0x8, addend: 0x0, symName: __ZNSt8__detail21_Hash_node_value_baseISt4pairIKcSt13unordered_setI4EdgeIcESt4hashIS5_ESt8equal_toIS5_ESaIS5_EEEE9_M_valptrEv, symObjAddr: 0x2EA0, symBinAddr: 0x100003CF6, symSize: 0x1A }
  - { offsetInCU: 0x19FE4, offset: 0x19FE4, size: 0x8, addend: 0x0, symName: __ZNSt5dequeIcSaIcEE12emplace_backIJcEEERcDpOT_, symObjAddr: 0x2DA6, symBinAddr: 0x100003BFC, symSize: 0xE0 }
  - { offsetInCU: 0x1A0B3, offset: 0x1A0B3, size: 0x8, addend: 0x0, symName: __ZNSt8__detail21_Hash_node_value_baseI4EdgeIcEE9_M_valptrEv, symObjAddr: 0x2D8C, symBinAddr: 0x100003BE2, symSize: 0x1A }
  - { offsetInCU: 0x1A0BB, offset: 0x1A0BB, size: 0x8, addend: 0x0, symName: __ZNSt5dequeIcSaIcEE12emplace_backIJcEEERcDpOT_, symObjAddr: 0x2DA6, symBinAddr: 0x100003BFC, symSize: 0xE0 }
  - { offsetInCU: 0x1A0E2, offset: 0x1A0E2, size: 0x8, addend: 0x0, symName: __ZNKSt8__detail10_Hash_nodeI4EdgeIcELb1EE7_M_nextEv, symObjAddr: 0x2D7A, symBinAddr: 0x100003BD0, symSize: 0x12 }
  - { offsetInCU: 0x1A189, offset: 0x1A189, size: 0x8, addend: 0x0, symName: __ZNSt8__detail14_Node_iteratorI4EdgeIcELb1ELb1EEC1EPNS_10_Hash_nodeIS2_Lb1EEE, symObjAddr: 0x2D54, symBinAddr: 0x100003BAA, symSize: 0x26 }
  - { offsetInCU: 0x1A191, offset: 0x1A191, size: 0x8, addend: 0x0, symName: __ZNKSt8__detail10_Hash_nodeI4EdgeIcELb1EE7_M_nextEv, symObjAddr: 0x2D7A, symBinAddr: 0x100003BD0, symSize: 0x12 }
  - { offsetInCU: 0x1A175, offset: 0x1A175, size: 0x8, addend: 0x0, symName: __ZNKSt10_HashtableI4EdgeIcES1_SaIS1_ENSt8__detail9_IdentityESt8equal_toIS1_ESt4hashIS1_ENS3_18_Mod_range_hashingENS3_20_Default_ranged_hashENS3_20_Prime_rehash_policyENS3_17_Hashtable_traitsILb1ELb1ELb1EEEE8_M_beginEv, symObjAddr: 0x2D42, symBinAddr: 0x100003B98, symSize: 0x12 }
  - { offsetInCU: 0x1A17D, offset: 0x1A17D, size: 0x8, addend: 0x0, symName: __ZNSt8__detail14_Node_iteratorI4EdgeIcELb1ELb1EEC1EPNS_10_Hash_nodeIS2_Lb1EEE, symObjAddr: 0x2D54, symBinAddr: 0x100003BAA, symSize: 0x26 }
  - { offsetInCU: 0x1A1A4, offset: 0x1A1A4, size: 0x8, addend: 0x0, symName: __ZNSt10_HashtableIccSaIcENSt8__detail9_IdentityESt8equal_toIcESt4hashIcENS1_18_Mod_range_hashingENS1_20_Default_ranged_hashENS1_20_Prime_rehash_policyENS1_17_Hashtable_traitsILb0ELb1ELb1EEEE9_M_insertIRKcNS1_10_AllocNodeISaINS1_10_Hash_nodeIcLb0EEEEEEEESt4pairINS1_14_Node_iteratorIcLb1ELb0EEEbEOT_RKT0_St17integral_constantIbLb1EE, symObjAddr: 0x2CF8, symBinAddr: 0x100003B4E, symSize: 0x4A }
  - { offsetInCU: 0x1A1AC, offset: 0x1A1AC, size: 0x8, addend: 0x0, symName: __ZNKSt10_HashtableI4EdgeIcES1_SaIS1_ENSt8__detail9_IdentityESt8equal_toIS1_ESt4hashIS1_ENS3_18_Mod_range_hashingENS3_20_Default_ranged_hashENS3_20_Prime_rehash_policyENS3_17_Hashtable_traitsILb1ELb1ELb1EEEE8_M_beginEv, symObjAddr: 0x2D42, symBinAddr: 0x100003B98, symSize: 0x12 }
  - { offsetInCU: 0x1A2A1, offset: 0x1A2A1, size: 0x8, addend: 0x0, symName: __ZNSt8__detail10_AllocNodeISaINS_10_Hash_nodeIcLb0EEEEEC1ERNS_16_Hashtable_allocIS3_EE, symObjAddr: 0x2CDE, symBinAddr: 0x100003B34, symSize: 0x1A }
  - { offsetInCU: 0x1A2A9, offset: 0x1A2A9, size: 0x8, addend: 0x0, symName: __ZNSt10_HashtableIccSaIcENSt8__detail9_IdentityESt8equal_toIcESt4hashIcENS1_18_Mod_range_hashingENS1_20_Default_ranged_hashENS1_20_Prime_rehash_policyENS1_17_Hashtable_traitsILb0ELb1ELb1EEEE9_M_insertIRKcNS1_10_AllocNodeISaINS1_10_Hash_nodeIcLb0EEEEEEEESt4pairINS1_14_Node_iteratorIcLb1ELb0EEEbEOT_RKT0_St17integral_constantIbLb1EE, symObjAddr: 0x2CF8, symBinAddr: 0x100003B4E, symSize: 0x4A }
  - { offsetInCU: 0x1A284, offset: 0x1A284, size: 0x8, addend: 0x0, symName: __ZNSt8__detail12_Insert_baseIccSaIcENS_9_IdentityESt8equal_toIcESt4hashIcENS_18_Mod_range_hashingENS_20_Default_ranged_hashENS_20_Prime_rehash_policyENS_17_Hashtable_traitsILb0ELb1ELb1EEEE20_M_conjure_hashtableEv, symObjAddr: 0x2CD0, symBinAddr: 0x100003B26, symSize: 0xE }
  - { offsetInCU: 0x1A28C, offset: 0x1A28C, size: 0x8, addend: 0x0, symName: __ZNSt8__detail10_AllocNodeISaINS_10_Hash_nodeIcLb0EEEEEC1ERNS_16_Hashtable_allocIS3_EE, symObjAddr: 0x2CDE, symBinAddr: 0x100003B34, symSize: 0x1A }
  - { offsetInCU: 0x1A322, offset: 0x1A322, size: 0x8, addend: 0x0, symName: __ZNSt8__detail14_Node_iteratorIcLb1ELb0EEC1EPNS_10_Hash_nodeIcLb0EEE, symObjAddr: 0x2CAA, symBinAddr: 0x100003B00, symSize: 0x26 }
  - { offsetInCU: 0x1A32A, offset: 0x1A32A, size: 0x8, addend: 0x0, symName: __ZNSt8__detail12_Insert_baseIccSaIcENS_9_IdentityESt8equal_toIcESt4hashIcENS_18_Mod_range_hashingENS_20_Default_ranged_hashENS_20_Prime_rehash_policyENS_17_Hashtable_traitsILb0ELb1ELb1EEEE20_M_conjure_hashtableEv, symObjAddr: 0x2CD0, symBinAddr: 0x100003B26, symSize: 0xE }
  - { offsetInCU: 0x1A317, offset: 0x1A317, size: 0x8, addend: 0x0, symName: __ZNKSt10_HashtableIccSaIcENSt8__detail9_IdentityESt8equal_toIcESt4hashIcENS1_18_Mod_range_hashingENS1_20_Default_ranged_hashENS1_20_Prime_rehash_policyENS1_17_Hashtable_traitsILb0ELb1ELb1EEEE12_M_find_nodeEmRKcm, symObjAddr: 0x2C5E, symBinAddr: 0x100003AB4, symSize: 0x4C }
  - { offsetInCU: 0x1A396, offset: 0x1A396, size: 0x8, addend: 0x0, symName: __ZNKSt10_HashtableIccSaIcENSt8__detail9_IdentityESt8equal_toIcESt4hashIcENS1_18_Mod_range_hashingENS1_20_Default_ranged_hashENS1_20_Prime_rehash_policyENS1_17_Hashtable_traitsILb0ELb1ELb1EEEE15_M_bucket_indexEm, symObjAddr: 0x2C30, symBinAddr: 0x100003A86, symSize: 0x2E }
  - { offsetInCU: 0x1A3D9, offset: 0x1A3D9, size: 0x8, addend: 0x0, symName: __ZNKSt8__detail15_Hash_code_baseIccNS_9_IdentityESt4hashIcENS_18_Mod_range_hashingENS_20_Default_ranged_hashELb0EE12_M_hash_codeERKc, symObjAddr: 0x2BFA, symBinAddr: 0x100003A50, symSize: 0x36 }
  - { offsetInCU: 0x1A41C, offset: 0x1A41C, size: 0x8, addend: 0x0, symName: __ZNKSt8__detail15_Hashtable_baseIccNS_9_IdentityESt8equal_toIcESt4hashIcENS_18_Mod_range_hashingENS_20_Default_ranged_hashENS_17_Hashtable_traitsILb0ELb1ELb1EEEE13_M_key_equalsERKcRKNS_16_Hash_node_valueIcLb0EEE, symObjAddr: 0x2BA0, symBinAddr: 0x1000039F6, symSize: 0x5A }
  - { offsetInCU: 0x1A424, offset: 0x1A424, size: 0x8, addend: 0x0, symName: __ZNKSt8__detail15_Hash_code_baseIccNS_9_IdentityESt4hashIcENS_18_Mod_range_hashingENS_20_Default_ranged_hashELb0EE12_M_hash_codeERKc, symObjAddr: 0x2BFA, symBinAddr: 0x100003A50, symSize: 0x36 }
  - { offsetInCU: 0x1A474, offset: 0x1A474, size: 0x8, addend: 0x0, symName: __ZNSt8__detail14_Node_iteratorIcLb1ELb0EEppEv, symObjAddr: 0x2B82, symBinAddr: 0x1000039D8, symSize: 0x1E }
  - { offsetInCU: 0x1A47C, offset: 0x1A47C, size: 0x8, addend: 0x0, symName: __ZNKSt8__detail15_Hashtable_baseIccNS_9_IdentityESt8equal_toIcESt4hashIcENS_18_Mod_range_hashingENS_20_Default_ranged_hashENS_17_Hashtable_traitsILb0ELb1ELb1EEEE13_M_key_equalsERKcRKNS_16_Hash_node_valueIcLb0EEE, symObjAddr: 0x2BA0, symBinAddr: 0x1000039F6, symSize: 0x5A }
  - { offsetInCU: 0x1A4A3, offset: 0x1A4A3, size: 0x8, addend: 0x0, symName: __ZNSt10_HashtableIccSaIcENSt8__detail9_IdentityESt8equal_toIcESt4hashIcENS1_18_Mod_range_hashingENS1_20_Default_ranged_hashENS1_20_Prime_rehash_policyENS1_17_Hashtable_traitsILb0ELb1ELb1EEEE5beginEv, symObjAddr: 0x2B52, symBinAddr: 0x1000039A8, symSize: 0x30 }
  - { offsetInCU: 0x1A4AB, offset: 0x1A4AB, size: 0x8, addend: 0x0, symName: __ZNSt8__detail14_Node_iteratorIcLb1ELb0EEppEv, symObjAddr: 0x2B82, symBinAddr: 0x1000039D8, symSize: 0x1E }
  - { offsetInCU: 0x1A4D2, offset: 0x1A4D2, size: 0x8, addend: 0x0, symName: __ZNSt10_HashtableIccSaIcENSt8__detail9_IdentityESt8equal_toIcESt4hashIcENS1_18_Mod_range_hashingENS1_20_Default_ranged_hashENS1_20_Prime_rehash_policyENS1_17_Hashtable_traitsILb0ELb1ELb1EEEE22__small_size_thresholdEv, symObjAddr: 0x2B46, symBinAddr: 0x10000399C, symSize: 0xC }
  - { offsetInCU: 0x1A4EF, offset: 0x1A4EF, size: 0x8, addend: 0x0, symName: __ZNKSt10_HashtableIccSaIcENSt8__detail9_IdentityESt8equal_toIcESt4hashIcENS1_18_Mod_range_hashingENS1_20_Default_ranged_hashENS1_20_Prime_rehash_policyENS1_17_Hashtable_traitsILb0ELb1ELb1EEEE4sizeEv, symObjAddr: 0x2B34, symBinAddr: 0x10000398A, symSize: 0x12 }
  - { offsetInCU: 0x1A4F7, offset: 0x1A4F7, size: 0x8, addend: 0x0, symName: __ZNSt10_HashtableIccSaIcENSt8__detail9_IdentityESt8equal_toIcESt4hashIcENS1_18_Mod_range_hashingENS1_20_Default_ranged_hashENS1_20_Prime_rehash_policyENS1_17_Hashtable_traitsILb0ELb1ELb1EEEE22__small_size_thresholdEv, symObjAddr: 0x2B46, symBinAddr: 0x10000399C, symSize: 0xC }
  - { offsetInCU: 0x1A51E, offset: 0x1A51E, size: 0x8, addend: 0x0, symName: __ZNSt5dequeIcSaIcEE16_M_pop_front_auxEv, symObjAddr: 0x2AAC, symBinAddr: 0x100003902, symSize: 0x88 }
  - { offsetInCU: 0x1A526, offset: 0x1A526, size: 0x8, addend: 0x0, symName: __ZNKSt10_HashtableIccSaIcENSt8__detail9_IdentityESt8equal_toIcESt4hashIcENS1_18_Mod_range_hashingENS1_20_Default_ranged_hashENS1_20_Prime_rehash_policyENS1_17_Hashtable_traitsILb0ELb1ELb1EEEE4sizeEv, symObjAddr: 0x2B34, symBinAddr: 0x10000398A, symSize: 0x12 }
  - { offsetInCU: 0x1A5EC, offset: 0x1A5EC, size: 0x8, addend: 0x0, symName: __ZNKSt15_Deque_iteratorIcRcPcEdeEv, symObjAddr: 0x2A9A, symBinAddr: 0x1000038F0, symSize: 0x12 }
  - { offsetInCU: 0x1A64A, offset: 0x1A64A, size: 0x8, addend: 0x0, symName: __ZSteqRKSt15_Deque_iteratorIcRcPcES4_, symObjAddr: 0x2A78, symBinAddr: 0x1000038CE, symSize: 0x22 }
  - { offsetInCU: 0x1A652, offset: 0x1A652, size: 0x8, addend: 0x0, symName: __ZNKSt15_Deque_iteratorIcRcPcEdeEv, symObjAddr: 0x2A9A, symBinAddr: 0x1000038F0, symSize: 0x12 }
  - { offsetInCU: 0x1A66E, offset: 0x1A66E, size: 0x8, addend: 0x0, symName: __ZNSt5dequeIcSaIcEE16_M_push_back_auxIJRKcEEEvDpOT_, symObjAddr: 0x2966, symBinAddr: 0x1000037BC, symSize: 0x112 }
  - { offsetInCU: 0x1A676, offset: 0x1A676, size: 0x8, addend: 0x0, symName: __ZSteqRKSt15_Deque_iteratorIcRcPcES4_, symObjAddr: 0x2A78, symBinAddr: 0x1000038CE, symSize: 0x22 }
  - { offsetInCU: 0x1A796, offset: 0x1A796, size: 0x8, addend: 0x0, symName: __ZNSt10_HashtableIccSaIcENSt8__detail9_IdentityESt8equal_toIcESt4hashIcENS1_18_Mod_range_hashingENS1_20_Default_ranged_hashENS1_20_Prime_rehash_policyENS1_17_Hashtable_traitsILb0ELb1ELb1EEEE21_M_deallocate_bucketsEPPNS1_15_Hash_node_baseEm, symObjAddr: 0x291E, symBinAddr: 0x100003774, symSize: 0x48 }
  - { offsetInCU: 0x1A7ED, offset: 0x1A7ED, size: 0x8, addend: 0x0, symName: __ZNSt8__detail16_Hashtable_allocISaINS_10_Hash_nodeIcLb0EEEEE19_M_deallocate_nodesEPS2_, symObjAddr: 0x28D6, symBinAddr: 0x10000372C, symSize: 0x48 }
  - { offsetInCU: 0x1A7F5, offset: 0x1A7F5, size: 0x8, addend: 0x0, symName: __ZNSt10_HashtableIccSaIcENSt8__detail9_IdentityESt8equal_toIcESt4hashIcENS1_18_Mod_range_hashingENS1_20_Default_ranged_hashENS1_20_Prime_rehash_policyENS1_17_Hashtable_traitsILb0ELb1ELb1EEEE21_M_deallocate_bucketsEPPNS1_15_Hash_node_baseEm, symObjAddr: 0x291E, symBinAddr: 0x100003774, symSize: 0x48 }
  - { offsetInCU: 0x1A856, offset: 0x1A856, size: 0x8, addend: 0x0, symName: __ZNKSt10_HashtableIccSaIcENSt8__detail9_IdentityESt8equal_toIcESt4hashIcENS1_18_Mod_range_hashingENS1_20_Default_ranged_hashENS1_20_Prime_rehash_policyENS1_17_Hashtable_traitsILb0ELb1ELb1EEEE8_M_beginEv, symObjAddr: 0x28C4, symBinAddr: 0x10000371A, symSize: 0x12 }
  - { offsetInCU: 0x1A85E, offset: 0x1A85E, size: 0x8, addend: 0x0, symName: __ZNSt8__detail16_Hashtable_allocISaINS_10_Hash_nodeIcLb0EEEEE19_M_deallocate_nodesEPS2_, symObjAddr: 0x28D6, symBinAddr: 0x10000372C, symSize: 0x48 }
  - { offsetInCU: 0x1A8ED, offset: 0x1A8ED, size: 0x8, addend: 0x0, symName: __ZNSt15_Deque_iteratorIcRcPcEC1ERKS2_, symObjAddr: 0x2876, symBinAddr: 0x1000036CC, symSize: 0x4E }
  - { offsetInCU: 0x1A901, offset: 0x1A901, size: 0x8, addend: 0x0, symName: __ZNSt11_Deque_baseIcSaIcEE17_M_deallocate_mapEPPcm, symObjAddr: 0x2816, symBinAddr: 0x10000366C, symSize: 0x60 }
  - { offsetInCU: 0x1A9CB, offset: 0x1A9CB, size: 0x8, addend: 0x0, symName: __ZNSt11_Deque_baseIcSaIcEE16_M_destroy_nodesEPPcS3_, symObjAddr: 0x27CE, symBinAddr: 0x100003624, symSize: 0x48 }
  - { offsetInCU: 0x1AA48, offset: 0x1AA48, size: 0x8, addend: 0x0, symName: __ZNSt11_Deque_baseIcSaIcEE17_M_initialize_mapEm, symObjAddr: 0x262A, symBinAddr: 0x100003480, symSize: 0x1A4 }
  - { offsetInCU: 0x1AB35, offset: 0x1AB35, size: 0x8, addend: 0x0, symName: __ZNSt11_Deque_baseIcSaIcEE11_Deque_implC1Ev, symObjAddr: 0x25FC, symBinAddr: 0x100003452, symSize: 0x2E }
  - { offsetInCU: 0x1AB83, offset: 0x1AB83, size: 0x8, addend: 0x0, symName: __ZNSt14_Function_base13_Base_managerIZ4mainEUlcE_E10_M_destroyERSt9_Any_dataSt17integral_constantIbLb1EE, symObjAddr: 0x25E0, symBinAddr: 0x100003436, symSize: 0x1C }
  - { offsetInCU: 0x1ABC0, offset: 0x1ABC0, size: 0x8, addend: 0x0, symName: __ZNSt14_Function_base13_Base_managerIZ4mainEUlcE_E15_M_init_functorIRKS1_EEvRSt9_Any_dataOT_, symObjAddr: 0x25AF, symBinAddr: 0x100003405, symSize: 0x31 }
  - { offsetInCU: 0x1ABC8, offset: 0x1ABC8, size: 0x8, addend: 0x0, symName: __ZNSt14_Function_base13_Base_managerIZ4mainEUlcE_E10_M_destroyERSt9_Any_dataSt17integral_constantIbLb1EE, symObjAddr: 0x25E0, symBinAddr: 0x100003436, symSize: 0x1C }
  - { offsetInCU: 0x1AC44, offset: 0x1AC44, size: 0x8, addend: 0x0, symName: __ZSt13__invoke_implIvRZ4mainEUlcE_JcEET_St14__invoke_otherOT0_DpOT1_, symObjAddr: 0x256C, symBinAddr: 0x1000033C2, symSize: 0x43 }
  - { offsetInCU: 0x1AC4C, offset: 0x1AC4C, size: 0x8, addend: 0x0, symName: __ZNSt14_Function_base13_Base_managerIZ4mainEUlcE_E15_M_init_functorIRKS1_EEvRSt9_Any_dataOT_, symObjAddr: 0x25AF, symBinAddr: 0x100003405, symSize: 0x31 }
  - { offsetInCU: 0x1ACA4, offset: 0x1ACA4, size: 0x8, addend: 0x0, symName: __ZSt7forwardIRZ4mainEUlcE_EOT_RNSt16remove_referenceIS2_E4typeE, symObjAddr: 0x255E, symBinAddr: 0x1000033B4, symSize: 0xE }
  - { offsetInCU: 0x1ACAC, offset: 0x1ACAC, size: 0x8, addend: 0x0, symName: __ZSt13__invoke_implIvRZ4mainEUlcE_JcEET_St14__invoke_otherOT0_DpOT1_, symObjAddr: 0x256C, symBinAddr: 0x1000033C2, symSize: 0x43 }
  - { offsetInCU: 0x1ACFD, offset: 0x1ACFD, size: 0x8, addend: 0x0, symName: __ZSt11__addressofIKZ4mainEUlcE_EPT_RS2_, symObjAddr: 0x2550, symBinAddr: 0x1000033A6, symSize: 0xE }
  - { offsetInCU: 0x1AD05, offset: 0x1AD05, size: 0x8, addend: 0x0, symName: __ZSt7forwardIRZ4mainEUlcE_EOT_RNSt16remove_referenceIS2_E4typeE, symObjAddr: 0x255E, symBinAddr: 0x1000033B4, symSize: 0xE }
  - { offsetInCU: 0x1AD14, offset: 0x1AD14, size: 0x8, addend: 0x0, symName: __ZNKSt9_Any_data9_M_accessIZ4mainEUlcE_EERKT_v, symObjAddr: 0x2536, symBinAddr: 0x10000338C, symSize: 0x1A }
  - { offsetInCU: 0x1AD1C, offset: 0x1AD1C, size: 0x8, addend: 0x0, symName: __ZSt11__addressofIKZ4mainEUlcE_EPT_RS2_, symObjAddr: 0x2550, symBinAddr: 0x1000033A6, symSize: 0xE }
  - { offsetInCU: 0x1AD50, offset: 0x1AD50, size: 0x8, addend: 0x0, symName: __ZNSt10_HashtableI4EdgeIcES1_SaIS1_ENSt8__detail9_IdentityESt8equal_toIS1_ESt4hashIS1_ENS3_18_Mod_range_hashingENS3_20_Default_ranged_hashENS3_20_Prime_rehash_policyENS3_17_Hashtable_traitsILb1ELb1ELb1EEEE9_M_insertIS1_NS3_10_AllocNodeISaINS3_10_Hash_nodeIS1_Lb1EEEEEEEESt4pairINS3_14_Node_iteratorIS1_Lb1ELb1EEEbEOT_RKT0_St17integral_constantIbLb1EE, symObjAddr: 0x24EC, symBinAddr: 0x100003342, symSize: 0x4A }
  - { offsetInCU: 0x1AD58, offset: 0x1AD58, size: 0x8, addend: 0x0, symName: __ZNKSt9_Any_data9_M_accessIZ4mainEUlcE_EERKT_v, symObjAddr: 0x2536, symBinAddr: 0x10000338C, symSize: 0x1A }
  - { offsetInCU: 0x1AE54, offset: 0x1AE54, size: 0x8, addend: 0x0, symName: __ZNSt8__detail10_AllocNodeISaINS_10_Hash_nodeI4EdgeIcELb1EEEEEC1ERNS_16_Hashtable_allocIS5_EE, symObjAddr: 0x24D2, symBinAddr: 0x100003328, symSize: 0x1A }
  - { offsetInCU: 0x1AE5C, offset: 0x1AE5C, size: 0x8, addend: 0x0, symName: __ZNSt10_HashtableI4EdgeIcES1_SaIS1_ENSt8__detail9_IdentityESt8equal_toIS1_ESt4hashIS1_ENS3_18_Mod_range_hashingENS3_20_Default_ranged_hashENS3_20_Prime_rehash_policyENS3_17_Hashtable_traitsILb1ELb1ELb1EEEE9_M_insertIS1_NS3_10_AllocNodeISaINS3_10_Hash_nodeIS1_Lb1EEEEEEEESt4pairINS3_14_Node_iteratorIS1_Lb1ELb1EEEbEOT_RKT0_St17integral_constantIbLb1EE, symObjAddr: 0x24EC, symBinAddr: 0x100003342, symSize: 0x4A }
  - { offsetInCU: 0x1AE30, offset: 0x1AE30, size: 0x8, addend: 0x0, symName: __ZNSt8__detail12_Insert_baseI4EdgeIcES2_SaIS2_ENS_9_IdentityESt8equal_toIS2_ESt4hashIS2_ENS_18_Mod_range_hashingENS_20_Default_ranged_hashENS_20_Prime_rehash_policyENS_17_Hashtable_traitsILb1ELb1ELb1EEEE20_M_conjure_hashtableEv, symObjAddr: 0x24C4, symBinAddr: 0x10000331A, symSize: 0xE }
  - { offsetInCU: 0x1AE38, offset: 0x1AE38, size: 0x8, addend: 0x0, symName: __ZNSt8__detail10_AllocNodeISaINS_10_Hash_nodeI4EdgeIcELb1EEEEEC1ERNS_16_Hashtable_allocIS5_EE, symObjAddr: 0x24D2, symBinAddr: 0x100003328, symSize: 0x1A }
  - { offsetInCU: 0x1AE5F, offset: 0x1AE5F, size: 0x8, addend: 0x0, symName: __ZNSt10_HashtableI4EdgeIcES1_SaIS1_ENSt8__detail9_IdentityESt8equal_toIS1_ESt4hashIS1_ENS3_18_Mod_range_hashingENS3_20_Default_ranged_hashENS3_20_Prime_rehash_policyENS3_17_Hashtable_traitsILb1ELb1ELb1EEEE8_M_eraseESt17integral_constantIbLb1EERKS1_, symObjAddr: 0x23BE, symBinAddr: 0x100003214, symSize: 0x106 }
  - { offsetInCU: 0x1AF12, offset: 0x1AF12, size: 0x8, addend: 0x0, symName: __ZNKSt8__detail14_Node_iteratorISt4pairIKcSt13unordered_setI4EdgeIcESt4hashIS5_ESt8equal_toIS5_ESaIS5_EEELb0ELb0EEptEv, symObjAddr: 0x239C, symBinAddr: 0x1000031F2, symSize: 0x22 }
  - { offsetInCU: 0x1AF41, offset: 0x1AF41, size: 0x8, addend: 0x0, symName: __ZNSt10_HashtableI4EdgeIcES1_SaIS1_ENSt8__detail9_IdentityESt8equal_toIS1_ESt4hashIS1_ENS3_18_Mod_range_hashingENS3_20_Default_ranged_hashENS3_20_Prime_rehash_policyENS3_17_Hashtable_traitsILb1ELb1ELb1EEEE14_M_move_assignEOSE_St17integral_constantIbLb1EE, symObjAddr: 0x2256, symBinAddr: 0x1000030AC, symSize: 0x146 }
  - { offsetInCU: 0x1AF49, offset: 0x1AF49, size: 0x8, addend: 0x0, symName: __ZNKSt8__detail14_Node_iteratorISt4pairIKcSt13unordered_setI4EdgeIcESt4hashIS5_ESt8equal_toIS5_ESaIS5_EEELb0ELb0EEptEv, symObjAddr: 0x239C, symBinAddr: 0x1000031F2, symSize: 0x22 }
  - { offsetInCU: 0x1B1FD, offset: 0x1B1FD, size: 0x8, addend: 0x0, symName: __ZSt4moveIRSt10_HashtableI4EdgeIcES2_SaIS2_ENSt8__detail9_IdentityESt8equal_toIS2_ESt4hashIS2_ENS4_18_Mod_range_hashingENS4_20_Default_ranged_hashENS4_20_Prime_rehash_policyENS4_17_Hashtable_traitsILb1ELb1ELb1EEEEEONSt16remove_referenceIT_E4typeEOSI_, symObjAddr: 0x2247, symBinAddr: 0x10000309D, symSize: 0xF }
  - { offsetInCU: 0x1B016, offset: 0x1B016, size: 0x8, addend: 0x0, symName: __ZNSt10_HashtableI4EdgeIcES1_SaIS1_ENSt8__detail9_IdentityESt8equal_toIS1_ESt4hashIS1_ENS3_18_Mod_range_hashingENS3_20_Default_ranged_hashENS3_20_Prime_rehash_policyENS3_17_Hashtable_traitsILb1ELb1ELb1EEEE21_M_deallocate_bucketsEv, symObjAddr: 0x221A, symBinAddr: 0x100003070, symSize: 0x2D }
  - { offsetInCU: 0x1B01E, offset: 0x1B01E, size: 0x8, addend: 0x0, symName: __ZSt4moveIRSt10_HashtableI4EdgeIcES2_SaIS2_ENSt8__detail9_IdentityESt8equal_toIS2_ESt4hashIS2_ENS4_18_Mod_range_hashingENS4_20_Default_ranged_hashENS4_20_Prime_rehash_policyENS4_17_Hashtable_traitsILb1ELb1ELb1EEEEEONSt16remove_referenceIT_E4typeEOSI_, symObjAddr: 0x2247, symBinAddr: 0x10000309D, symSize: 0xF }
  - { offsetInCU: 0x1B045, offset: 0x1B045, size: 0x8, addend: 0x0, symName: __ZNSt10_HashtableI4EdgeIcES1_SaIS1_ENSt8__detail9_IdentityESt8equal_toIS1_ESt4hashIS1_ENS3_18_Mod_range_hashingENS3_20_Default_ranged_hashENS3_20_Prime_rehash_policyENS3_17_Hashtable_traitsILb1ELb1ELb1EEEE5clearEv, symObjAddr: 0x21B0, symBinAddr: 0x100003006, symSize: 0x6A }
  - { offsetInCU: 0x1B0DF, offset: 0x1B0DF, size: 0x8, addend: 0x0, symName: __ZNSt15__new_allocatorINSt8__detail10_Hash_nodeI4EdgeIcELb1EEEED2Ev, symObjAddr: 0x21A4, symBinAddr: 0x100002FFA, symSize: 0xC }
  - { offsetInCU: 0x1B0E2, offset: 0x1B0E2, size: 0x8, addend: 0x0, symName: __ZNSt8__detail9_Map_baseIcSt4pairIKcSt13unordered_setI4EdgeIcESt4hashIS5_ESt8equal_toIS5_ESaIS5_EEESaISC_ENS_10_Select1stES8_IcES6_IcENS_18_Mod_range_hashingENS_20_Default_ranged_hashENS_20_Prime_rehash_policyENS_17_Hashtable_traitsILb0ELb0ELb1EEELb1EEixERS2_, symObjAddr: 0x207A, symBinAddr: 0x100002ED0, symSize: 0x12A }
  - { offsetInCU: 0x1B1BD, offset: 0x1B1BD, size: 0x8, addend: 0x0, symName: __ZNSt10_HashtableIcSt4pairIKcSt13unordered_setI4EdgeIcESt4hashIS4_ESt8equal_toIS4_ESaIS4_EEESaISB_ENSt8__detail10_Select1stES7_IcES5_IcENSD_18_Mod_range_hashingENSD_20_Default_ranged_hashENSD_20_Prime_rehash_policyENSD_17_Hashtable_traitsILb0ELb0ELb1EEEE3endEv, symObjAddr: 0x2056, symBinAddr: 0x100002EAC, symSize: 0x24 }
  - { offsetInCU: 0x1B1EC, offset: 0x1B1EC, size: 0x8, addend: 0x0, symName: __ZNSt10_HashtableIcSt4pairIKcSt13unordered_setI4EdgeIcESt4hashIS4_ESt8equal_toIS4_ESaIS4_EEESaISB_ENSt8__detail10_Select1stES7_IcES5_IcENSD_18_Mod_range_hashingENSD_20_Default_ranged_hashENSD_20_Prime_rehash_policyENSD_17_Hashtable_traitsILb0ELb0ELb1EEEE4findERS1_, symObjAddr: 0x1F4A, symBinAddr: 0x100002DA0, symSize: 0x10C }
  - { offsetInCU: 0x1B1F4, offset: 0x1B1F4, size: 0x8, addend: 0x0, symName: __ZNSt10_HashtableIcSt4pairIKcSt13unordered_setI4EdgeIcESt4hashIS4_ESt8equal_toIS4_ESaIS4_EEESaISB_ENSt8__detail10_Select1stES7_IcES5_IcENSD_18_Mod_range_hashingENSD_20_Default_ranged_hashENSD_20_Prime_rehash_policyENSD_17_Hashtable_traitsILb0ELb0ELb1EEEE3endEv, symObjAddr: 0x2056, symBinAddr: 0x100002EAC, symSize: 0x24 }
  - { offsetInCU: 0x1B280, offset: 0x1B280, size: 0x8, addend: 0x0, symName: __ZNSt8__detail16_Hashtable_allocISaINS_10_Hash_nodeISt4pairIKcSt13unordered_setI4EdgeIcESt4hashIS6_ESt8equal_toIS6_ESaIS6_EEELb0EEEEE21_M_deallocate_bucketsEPPNS_15_Hash_node_baseEm, symObjAddr: 0x1ED4, symBinAddr: 0x100002D2A, symSize: 0x76 }
  - { offsetInCU: 0x1B288, offset: 0x1B288, size: 0x8, addend: 0x0, symName: __ZNSt10_HashtableIcSt4pairIKcSt13unordered_setI4EdgeIcESt4hashIS4_ESt8equal_toIS4_ESaIS4_EEESaISB_ENSt8__detail10_Select1stES7_IcES5_IcENSD_18_Mod_range_hashingENSD_20_Default_ranged_hashENSD_20_Prime_rehash_policyENSD_17_Hashtable_traitsILb0ELb0ELb1EEEE4findERS1_, symObjAddr: 0x1F4A, symBinAddr: 0x100002DA0, symSize: 0x10C }
  - { offsetInCU: 0x1B3B5, offset: 0x1B3B5, size: 0x8, addend: 0x0, symName: __ZNKSt10_HashtableIcSt4pairIKcSt13unordered_setI4EdgeIcESt4hashIS4_ESt8equal_toIS4_ESaIS4_EEESaISB_ENSt8__detail10_Select1stES7_IcES5_IcENSD_18_Mod_range_hashingENSD_20_Default_ranged_hashENSD_20_Prime_rehash_policyENSD_17_Hashtable_traitsILb0ELb0ELb1EEEE21_M_uses_single_bucketEPPNSD_15_Hash_node_baseE, symObjAddr: 0x1EAE, symBinAddr: 0x100002D04, symSize: 0x26 }
  - { offsetInCU: 0x1B3BD, offset: 0x1B3BD, size: 0x8, addend: 0x0, symName: __ZNSt8__detail16_Hashtable_allocISaINS_10_Hash_nodeISt4pairIKcSt13unordered_setI4EdgeIcESt4hashIS6_ESt8equal_toIS6_ESaIS6_EEELb0EEEEE21_M_deallocate_bucketsEPPNS_15_Hash_node_baseEm, symObjAddr: 0x1ED4, symBinAddr: 0x100002D2A, symSize: 0x76 }
  - { offsetInCU: 0x1B3F8, offset: 0x1B3F8, size: 0x8, addend: 0x0, symName: __ZNSt8__detail16_Hashtable_allocISaINS_10_Hash_nodeISt4pairIKcSt13unordered_setI4EdgeIcESt4hashIS6_ESt8equal_toIS6_ESaIS6_EEELb0EEEEE18_M_deallocate_nodeEPSE_, symObjAddr: 0x1E3E, symBinAddr: 0x100002C94, symSize: 0x70 }
  - { offsetInCU: 0x1B400, offset: 0x1B400, size: 0x8, addend: 0x0, symName: __ZNKSt10_HashtableIcSt4pairIKcSt13unordered_setI4EdgeIcESt4hashIS4_ESt8equal_toIS4_ESaIS4_EEESaISB_ENSt8__detail10_Select1stES7_IcES5_IcENSD_18_Mod_range_hashingENSD_20_Default_ranged_hashENSD_20_Prime_rehash_policyENSD_17_Hashtable_traitsILb0ELb0ELb1EEEE21_M_uses_single_bucketEPPNSD_15_Hash_node_baseE, symObjAddr: 0x1EAE, symBinAddr: 0x100002D04, symSize: 0x26 }
  - { offsetInCU: 0x1B4A1, offset: 0x1B4A1, size: 0x8, addend: 0x0, symName: __ZNKSt8__detail10_Hash_nodeISt4pairIKcSt13unordered_setI4EdgeIcESt4hashIS5_ESt8equal_toIS5_ESaIS5_EEELb0EE7_M_nextEv, symObjAddr: 0x1E2C, symBinAddr: 0x100002C82, symSize: 0x12 }
  - { offsetInCU: 0x1B4D0, offset: 0x1B4D0, size: 0x8, addend: 0x0, symName: __ZNSt5dequeIcSaIcEE9push_backEOc, symObjAddr: 0x1DFA, symBinAddr: 0x100002C50, symSize: 0x32 }
  - { offsetInCU: 0x1B555, offset: 0x1B555, size: 0x8, addend: 0x0, symName: __ZSt4moveIRcEONSt16remove_referenceIT_E4typeEOS2_, symObjAddr: 0x1DEC, symBinAddr: 0x100002C42, symSize: 0xE }
  - { offsetInCU: 0x1B55D, offset: 0x1B55D, size: 0x8, addend: 0x0, symName: __ZNSt5dequeIcSaIcEE9push_backEOc, symObjAddr: 0x1DFA, symBinAddr: 0x100002C50, symSize: 0x32 }
  - { offsetInCU: 0x1B567, offset: 0x1B567, size: 0x8, addend: 0x0, symName: __ZNSt8__detail21_Hash_node_value_baseI4EdgeIcEE4_M_vEv, symObjAddr: 0x1DD2, symBinAddr: 0x100002C28, symSize: 0x1A }
  - { offsetInCU: 0x1B56F, offset: 0x1B56F, size: 0x8, addend: 0x0, symName: __ZSt4moveIRcEONSt16remove_referenceIT_E4typeEOS2_, symObjAddr: 0x1DEC, symBinAddr: 0x100002C42, symSize: 0xE }
  - { offsetInCU: 0x1B596, offset: 0x1B596, size: 0x8, addend: 0x0, symName: __ZNSt8__detail19_Node_iterator_baseI4EdgeIcELb1EE7_M_incrEv, symObjAddr: 0x1DAC, symBinAddr: 0x100002C02, symSize: 0x26 }
  - { offsetInCU: 0x1B5C5, offset: 0x1B5C5, size: 0x8, addend: 0x0, symName: __ZNSt10_HashtableI4EdgeIcES1_SaIS1_ENSt8__detail9_IdentityESt8equal_toIS1_ESt4hashIS1_ENS3_18_Mod_range_hashingENS3_20_Default_ranged_hashENS3_20_Prime_rehash_policyENS3_17_Hashtable_traitsILb1ELb1ELb1EEEE3endEv, symObjAddr: 0x1D88, symBinAddr: 0x100002BDE, symSize: 0x24 }
  - { offsetInCU: 0x1B5F4, offset: 0x1B5F4, size: 0x8, addend: 0x0, symName: __ZNSt10_HashtableI4EdgeIcES1_SaIS1_ENSt8__detail9_IdentityESt8equal_toIS1_ESt4hashIS1_ENS3_18_Mod_range_hashingENS3_20_Default_ranged_hashENS3_20_Prime_rehash_policyENS3_17_Hashtable_traitsILb1ELb1ELb1EEEE5beginEv, symObjAddr: 0x1D58, symBinAddr: 0x100002BAE, symSize: 0x30 }
  - { offsetInCU: 0x1B5FC, offset: 0x1B5FC, size: 0x8, addend: 0x0, symName: __ZNSt10_HashtableI4EdgeIcES1_SaIS1_ENSt8__detail9_IdentityESt8equal_toIS1_ESt4hashIS1_ENS3_18_Mod_range_hashingENS3_20_Default_ranged_hashENS3_20_Prime_rehash_policyENS3_17_Hashtable_traitsILb1ELb1ELb1EEEE3endEv, symObjAddr: 0x1D88, symBinAddr: 0x100002BDE, symSize: 0x24 }
  - { offsetInCU: 0x1B623, offset: 0x1B623, size: 0x8, addend: 0x0, symName: __ZNSt8__detail12_Insert_baseIccSaIcENS_9_IdentityESt8equal_toIcESt4hashIcENS_18_Mod_range_hashingENS_20_Default_ranged_hashENS_20_Prime_rehash_policyENS_17_Hashtable_traitsILb0ELb1ELb1EEEE6insertERKc, symObjAddr: 0x1D0C, symBinAddr: 0x100002B62, symSize: 0x4C }
  - { offsetInCU: 0x1B62B, offset: 0x1B62B, size: 0x8, addend: 0x0, symName: __ZNSt10_HashtableI4EdgeIcES1_SaIS1_ENSt8__detail9_IdentityESt8equal_toIS1_ESt4hashIS1_ENS3_18_Mod_range_hashingENS3_20_Default_ranged_hashENS3_20_Prime_rehash_policyENS3_17_Hashtable_traitsILb1ELb1ELb1EEEE5beginEv, symObjAddr: 0x1D58, symBinAddr: 0x100002BAE, symSize: 0x30 }
  - { offsetInCU: 0x1B68E, offset: 0x1B68E, size: 0x8, addend: 0x0, symName: __ZNSt10_HashtableIccSaIcENSt8__detail9_IdentityESt8equal_toIcESt4hashIcENS1_18_Mod_range_hashingENS1_20_Default_ranged_hashENS1_20_Prime_rehash_policyENS1_17_Hashtable_traitsILb0ELb1ELb1EEEE3endEv, symObjAddr: 0x1CE8, symBinAddr: 0x100002B3E, symSize: 0x24 }
  - { offsetInCU: 0x1B6BD, offset: 0x1B6BD, size: 0x8, addend: 0x0, symName: __ZNSt10_HashtableIccSaIcENSt8__detail9_IdentityESt8equal_toIcESt4hashIcENS1_18_Mod_range_hashingENS1_20_Default_ranged_hashENS1_20_Prime_rehash_policyENS1_17_Hashtable_traitsILb0ELb1ELb1EEEE4findERKc, symObjAddr: 0x1BDC, symBinAddr: 0x100002A32, symSize: 0x10C }
  - { offsetInCU: 0x1B6C5, offset: 0x1B6C5, size: 0x8, addend: 0x0, symName: __ZNSt10_HashtableIccSaIcENSt8__detail9_IdentityESt8equal_toIcESt4hashIcENS1_18_Mod_range_hashingENS1_20_Default_ranged_hashENS1_20_Prime_rehash_policyENS1_17_Hashtable_traitsILb0ELb1ELb1EEEE3endEv, symObjAddr: 0x1CE8, symBinAddr: 0x100002B3E, symSize: 0x24 }
  - { offsetInCU: 0x1B751, offset: 0x1B751, size: 0x8, addend: 0x0, symName: __ZNSt5dequeIcSaIcEE9pop_frontEv, symObjAddr: 0x1B5E, symBinAddr: 0x1000029B4, symSize: 0x7E }
  - { offsetInCU: 0x1B7E5, offset: 0x1B7E5, size: 0x8, addend: 0x0, symName: __ZNSt5dequeIcSaIcEE5frontEv, symObjAddr: 0x1B30, symBinAddr: 0x100002986, symSize: 0x2E }
  - { offsetInCU: 0x1B814, offset: 0x1B814, size: 0x8, addend: 0x0, symName: __ZNKSt5dequeIcSaIcEE5emptyEv, symObjAddr: 0x1B06, symBinAddr: 0x10000295C, symSize: 0x2A }
  - { offsetInCU: 0x1B843, offset: 0x1B843, size: 0x8, addend: 0x0, symName: __ZNSt5dequeIcSaIcEE9push_backERKc, symObjAddr: 0x1A48, symBinAddr: 0x10000289E, symSize: 0xBE }
  - { offsetInCU: 0x1B906, offset: 0x1B906, size: 0x8, addend: 0x0, symName: __ZNSt10_HashtableIccSaIcENSt8__detail9_IdentityESt8equal_toIcESt4hashIcENS1_18_Mod_range_hashingENS1_20_Default_ranged_hashENS1_20_Prime_rehash_policyENS1_17_Hashtable_traitsILb0ELb1ELb1EEEE21_M_deallocate_bucketsEv, symObjAddr: 0x1A1A, symBinAddr: 0x100002870, symSize: 0x2E }
  - { offsetInCU: 0x1B935, offset: 0x1B935, size: 0x8, addend: 0x0, symName: __ZNSt10_HashtableIccSaIcENSt8__detail9_IdentityESt8equal_toIcESt4hashIcENS1_18_Mod_range_hashingENS1_20_Default_ranged_hashENS1_20_Prime_rehash_policyENS1_17_Hashtable_traitsILb0ELb1ELb1EEEE5clearEv, symObjAddr: 0x19B0, symBinAddr: 0x100002806, symSize: 0x6A }
  - { offsetInCU: 0x1B9C8, offset: 0x1B9C8, size: 0x8, addend: 0x0, symName: __ZNSt15__new_allocatorINSt8__detail10_Hash_nodeIcLb0EEEED2Ev, symObjAddr: 0x19A4, symBinAddr: 0x1000027FA, symSize: 0xC }
  - { offsetInCU: 0x1B9D2, offset: 0x1B9D2, size: 0x8, addend: 0x0, symName: __ZNSt5dequeIcSaIcEE15_M_destroy_dataESt15_Deque_iteratorIcRcPcES5_RKS0_, symObjAddr: 0x198C, symBinAddr: 0x1000027E2, symSize: 0x18 }
  - { offsetInCU: 0x1BA3B, offset: 0x1BA3B, size: 0x8, addend: 0x0, symName: __ZNSt11_Deque_baseIcSaIcEE19_M_get_Tp_allocatorEv, symObjAddr: 0x197E, symBinAddr: 0x1000027D4, symSize: 0xE }
  - { offsetInCU: 0x1BA43, offset: 0x1BA43, size: 0x8, addend: 0x0, symName: __ZNSt5dequeIcSaIcEE15_M_destroy_dataESt15_Deque_iteratorIcRcPcES5_RKS0_, symObjAddr: 0x198C, symBinAddr: 0x1000027E2, symSize: 0x18 }
  - { offsetInCU: 0x1BA6A, offset: 0x1BA6A, size: 0x8, addend: 0x0, symName: __ZNSt5dequeIcSaIcEE3endEv, symObjAddr: 0x1950, symBinAddr: 0x1000027A6, symSize: 0x2E }
  - { offsetInCU: 0x1BA99, offset: 0x1BA99, size: 0x8, addend: 0x0, symName: __ZNSt5dequeIcSaIcEE5beginEv, symObjAddr: 0x1922, symBinAddr: 0x100002778, symSize: 0x2E }
  - { offsetInCU: 0x1BB0E, offset: 0x1BB0E, size: 0x8, addend: 0x0, symName: __ZNSt11_Deque_baseIcSaIcEED2Ev, symObjAddr: 0x18BA, symBinAddr: 0x100002710, symSize: 0x68 }
  - { offsetInCU: 0x1BB16, offset: 0x1BB16, size: 0x8, addend: 0x0, symName: __ZNSt5dequeIcSaIcEE5beginEv, symObjAddr: 0x1922, symBinAddr: 0x100002778, symSize: 0x2E }
  - { offsetInCU: 0x1BB55, offset: 0x1BB55, size: 0x8, addend: 0x0, symName: __ZNSt11_Deque_baseIcSaIcEEC2Ev, symObjAddr: 0x186E, symBinAddr: 0x1000026C4, symSize: 0x4C }
  - { offsetInCU: 0x1BB5D, offset: 0x1BB5D, size: 0x8, addend: 0x0, symName: __ZNSt11_Deque_baseIcSaIcEED2Ev, symObjAddr: 0x18BA, symBinAddr: 0x100002710, symSize: 0x68 }
  - { offsetInCU: 0x1BBBB, offset: 0x1BBBB, size: 0x8, addend: 0x0, symName: __ZNSt11_Deque_baseIcSaIcEE11_Deque_implD1Ev, symObjAddr: 0x184A, symBinAddr: 0x1000026A0, symSize: 0x24 }
  - { offsetInCU: 0x1BBC3, offset: 0x1BBC3, size: 0x8, addend: 0x0, symName: __ZNSt11_Deque_baseIcSaIcEEC2Ev, symObjAddr: 0x186E, symBinAddr: 0x1000026C4, symSize: 0x4C }
  - { offsetInCU: 0x1BBE3, offset: 0x1BBE3, size: 0x8, addend: 0x0, symName: __ZNSt14_Function_base13_Base_managerIZ4mainEUlcE_E10_M_managerERSt9_Any_dataRKS3_St18_Manager_operation, symObjAddr: 0x17A4, symBinAddr: 0x1000025FA, symSize: 0xA6 }
  - { offsetInCU: 0x1BBEB, offset: 0x1BBEB, size: 0x8, addend: 0x0, symName: __ZNSt11_Deque_baseIcSaIcEE11_Deque_implD1Ev, symObjAddr: 0x184A, symBinAddr: 0x1000026A0, symSize: 0x24 }
  - { offsetInCU: 0x1BC44, offset: 0x1BC44, size: 0x8, addend: 0x0, symName: __ZNSt9_Any_data9_M_accessIPZ4mainEUlcE_EERT_v, symObjAddr: 0x178A, symBinAddr: 0x1000025E0, symSize: 0x1A }
  - { offsetInCU: 0x1BC4C, offset: 0x1BC4C, size: 0x8, addend: 0x0, symName: __ZNSt14_Function_base13_Base_managerIZ4mainEUlcE_E10_M_managerERSt9_Any_dataRKS3_St18_Manager_operation, symObjAddr: 0x17A4, symBinAddr: 0x1000025FA, symSize: 0xA6 }
  - { offsetInCU: 0x1BC94, offset: 0x1BC94, size: 0x8, addend: 0x0, symName: __ZNSt9_Any_data9_M_accessIPKSt9type_infoEERT_v, symObjAddr: 0x1770, symBinAddr: 0x1000025C6, symSize: 0x1A }
  - { offsetInCU: 0x1BC9C, offset: 0x1BC9C, size: 0x8, addend: 0x0, symName: __ZNSt9_Any_data9_M_accessIPZ4mainEUlcE_EERT_v, symObjAddr: 0x178A, symBinAddr: 0x1000025E0, symSize: 0x1A }
  - { offsetInCU: 0x1BD00, offset: 0x1BD00, size: 0x8, addend: 0x0, symName: __ZSt10__invoke_rIvRZ4mainEUlcE_JcEENSt9enable_ifIX16is_invocable_r_vIT_T0_DpT1_EES3_E4typeEOS4_DpOS5_, symObjAddr: 0x1732, symBinAddr: 0x100002588, symSize: 0x3E }
  - { offsetInCU: 0x1BD08, offset: 0x1BD08, size: 0x8, addend: 0x0, symName: __ZNSt9_Any_data9_M_accessIPKSt9type_infoEERT_v, symObjAddr: 0x1770, symBinAddr: 0x1000025C6, symSize: 0x1A }
  - { offsetInCU: 0x1BD79, offset: 0x1BD79, size: 0x8, addend: 0x0, symName: __ZSt7forwardIcEOT_RNSt16remove_referenceIS0_E4typeE, symObjAddr: 0x1724, symBinAddr: 0x10000257A, symSize: 0xE }
  - { offsetInCU: 0x1BD81, offset: 0x1BD81, size: 0x8, addend: 0x0, symName: __ZSt10__invoke_rIvRZ4mainEUlcE_JcEENSt9enable_ifIX16is_invocable_r_vIT_T0_DpT1_EES3_E4typeEOS4_DpOS5_, symObjAddr: 0x1732, symBinAddr: 0x100002588, symSize: 0x3E }
  - { offsetInCU: 0x1BD87, offset: 0x1BD87, size: 0x8, addend: 0x0, symName: __ZNSt14_Function_base13_Base_managerIZ4mainEUlcE_E14_M_get_pointerERKSt9_Any_data, symObjAddr: 0x16FA, symBinAddr: 0x100002550, symSize: 0x2A }
  - { offsetInCU: 0x1BD8F, offset: 0x1BD8F, size: 0x8, addend: 0x0, symName: __ZSt7forwardIcEOT_RNSt16remove_referenceIS0_E4typeE, symObjAddr: 0x1724, symBinAddr: 0x10000257A, symSize: 0xE }
  - { offsetInCU: 0x1BDE8, offset: 0x1BDE8, size: 0x8, addend: 0x0, symName: __ZNSt14_Function_base13_Base_managerIZ4mainEUlcE_E9_M_createIS1_EEvRSt9_Any_dataOT_St17integral_constantIbLb1EE, symObjAddr: 0x16C2, symBinAddr: 0x100002518, symSize: 0x38 }
  - { offsetInCU: 0x1BDF0, offset: 0x1BDF0, size: 0x8, addend: 0x0, symName: __ZNSt14_Function_base13_Base_managerIZ4mainEUlcE_E14_M_get_pointerERKSt9_Any_data, symObjAddr: 0x16FA, symBinAddr: 0x100002550, symSize: 0x2A }
  - { offsetInCU: 0x1BE45, offset: 0x1BE45, size: 0x8, addend: 0x0, symName: __ZNKSt10_HashtableI4EdgeIcES1_SaIS1_ENSt8__detail9_IdentityESt8equal_toIS1_ESt4hashIS1_ENS3_18_Mod_range_hashingENS3_20_Default_ranged_hashENS3_20_Prime_rehash_policyENS3_17_Hashtable_traitsILb1ELb1ELb1EEEE4sizeEv, symObjAddr: 0x16B0, symBinAddr: 0x100002506, symSize: 0x12 }
  - { offsetInCU: 0x1BE4D, offset: 0x1BE4D, size: 0x8, addend: 0x0, symName: __ZNSt14_Function_base13_Base_managerIZ4mainEUlcE_E9_M_createIS1_EEvRSt9_Any_dataOT_St17integral_constantIbLb1EE, symObjAddr: 0x16C2, symBinAddr: 0x100002518, symSize: 0x38 }
  - { offsetInCU: 0x1BE74, offset: 0x1BE74, size: 0x8, addend: 0x0, symName: __ZNSt8__detail7_InsertI4EdgeIcES2_SaIS2_ENS_9_IdentityESt8equal_toIS2_ESt4hashIS2_ENS_18_Mod_range_hashingENS_20_Default_ranged_hashENS_20_Prime_rehash_policyENS_17_Hashtable_traitsILb1ELb1ELb1EEELb1EE6insertEOS2_, symObjAddr: 0x1658, symBinAddr: 0x1000024AE, symSize: 0x58 }
  - { offsetInCU: 0x1BF38, offset: 0x1BF38, size: 0x8, addend: 0x0, symName: __ZSt4moveIR4EdgeIcEEONSt16remove_referenceIT_E4typeEOS4_, symObjAddr: 0x1649, symBinAddr: 0x10000249F, symSize: 0xF }
  - { offsetInCU: 0x1BF3D, offset: 0x1BF3D, size: 0x8, addend: 0x0, symName: __ZNSt10_HashtableI4EdgeIcES1_SaIS1_ENSt8__detail9_IdentityESt8equal_toIS1_ESt4hashIS1_ENS3_18_Mod_range_hashingENS3_20_Default_ranged_hashENS3_20_Prime_rehash_policyENS3_17_Hashtable_traitsILb1ELb1ELb1EEEE5eraseERKS1_, symObjAddr: 0x1624, symBinAddr: 0x10000247A, symSize: 0x25 }
  - { offsetInCU: 0x1BF45, offset: 0x1BF45, size: 0x8, addend: 0x0, symName: __ZSt4moveIR4EdgeIcEEONSt16remove_referenceIT_E4typeEOS4_, symObjAddr: 0x1649, symBinAddr: 0x10000249F, symSize: 0xF }
  - { offsetInCU: 0x1BF80, offset: 0x1BF80, size: 0x8, addend: 0x0, symName: __ZNSt8__detail9_Map_baseIcSt4pairIKcSt13unordered_setI4EdgeIcESt4hashIS5_ESt8equal_toIS5_ESaIS5_EEESaISC_ENS_10_Select1stES8_IcES6_IcENS_18_Mod_range_hashingENS_20_Default_ranged_hashENS_20_Prime_rehash_policyENS_17_Hashtable_traitsILb0ELb0ELb1EEELb1EE2atERS2_, symObjAddr: 0x15D2, symBinAddr: 0x100002428, symSize: 0x52 }
  - { offsetInCU: 0x1BFD7, offset: 0x1BFD7, size: 0x8, addend: 0x0, symName: __ZNSt10_HashtableI4EdgeIcES1_SaIS1_ENSt8__detail9_IdentityESt8equal_toIS1_ESt4hashIS1_ENS3_18_Mod_range_hashingENS3_20_Default_ranged_hashENS3_20_Prime_rehash_policyENS3_17_Hashtable_traitsILb1ELb1ELb1EEEEaSEOSE_, symObjAddr: 0x159A, symBinAddr: 0x1000023F0, symSize: 0x38 }
  - { offsetInCU: 0x1BFDF, offset: 0x1BFDF, size: 0x8, addend: 0x0, symName: __ZNSt8__detail9_Map_baseIcSt4pairIKcSt13unordered_setI4EdgeIcESt4hashIS5_ESt8equal_toIS5_ESaIS5_EEESaISC_ENS_10_Select1stES8_IcES6_IcENS_18_Mod_range_hashingENS_20_Default_ranged_hashENS_20_Prime_rehash_policyENS_17_Hashtable_traitsILb0ELb0ELb1EEELb1EE2atERS2_, symObjAddr: 0x15D2, symBinAddr: 0x100002428, symSize: 0x52 }
  - { offsetInCU: 0x1C127, offset: 0x1C127, size: 0x8, addend: 0x0, symName: __ZNSt10_HashtableI4EdgeIcES1_SaIS1_ENSt8__detail9_IdentityESt8equal_toIS1_ESt4hashIS1_ENS3_18_Mod_range_hashingENS3_20_Default_ranged_hashENS3_20_Prime_rehash_policyENS3_17_Hashtable_traitsILb1ELb1ELb1EEEED1Ev, symObjAddr: 0x1566, symBinAddr: 0x1000023BC, symSize: 0x34 }
  - { offsetInCU: 0x1C119, offset: 0x1C119, size: 0x8, addend: 0x0, symName: __ZNSt8__detail21_Hashtable_ebo_helperILi0ESaINS_10_Hash_nodeI4EdgeIcELb1EEEELb1EEC2Ev, symObjAddr: 0x1548, symBinAddr: 0x10000239E, symSize: 0x1E }
  - { offsetInCU: 0x1C19F, offset: 0x1C19F, size: 0x8, addend: 0x0, symName: __ZNSt8__detail21_Hashtable_ebo_helperILi0ESt8equal_toI4EdgeIcEELb1EEC2Ev, symObjAddr: 0x153C, symBinAddr: 0x100002392, symSize: 0xC }
  - { offsetInCU: 0x1C1E2, offset: 0x1C1E2, size: 0x8, addend: 0x0, symName: __ZNSt8__detail21_Hashtable_ebo_helperILi1ESt4hashI4EdgeIcEELb1EEC2Ev, symObjAddr: 0x1530, symBinAddr: 0x100002386, symSize: 0xC }
  - { offsetInCU: 0x1C1CB, offset: 0x1C1CB, size: 0x8, addend: 0x0, symName: __ZNSt13unordered_mapIcSt13unordered_setI4EdgeIcESt4hashIS2_ESt8equal_toIS2_ESaIS2_EES3_IcES5_IcESaISt4pairIKcS8_EEEixERSC_, symObjAddr: 0x150A, symBinAddr: 0x100002360, symSize: 0x26 }
  - { offsetInCU: 0x1C296, offset: 0x1C296, size: 0x8, addend: 0x0, symName: __ZNSt8__detailneERKNS_19_Node_iterator_baseISt4pairIKcSt13unordered_setI4EdgeIcESt4hashIS5_ESt8equal_toIS5_ESaIS5_EEELb0EEESF_, symObjAddr: 0x14E8, symBinAddr: 0x10000233E, symSize: 0x22 }
  - { offsetInCU: 0x1C29E, offset: 0x1C29E, size: 0x8, addend: 0x0, symName: __ZNSt13unordered_mapIcSt13unordered_setI4EdgeIcESt4hashIS2_ESt8equal_toIS2_ESaIS2_EES3_IcES5_IcESaISt4pairIKcS8_EEEixERSC_, symObjAddr: 0x150A, symBinAddr: 0x100002360, symSize: 0x26 }
  - { offsetInCU: 0x1C26B, offset: 0x1C26B, size: 0x8, addend: 0x0, symName: __ZNSt13unordered_mapIcSt13unordered_setI4EdgeIcESt4hashIS2_ESt8equal_toIS2_ESaIS2_EES3_IcES5_IcESaISt4pairIKcS8_EEE3endEv, symObjAddr: 0x14CE, symBinAddr: 0x100002324, symSize: 0x1A }
  - { offsetInCU: 0x1C273, offset: 0x1C273, size: 0x8, addend: 0x0, symName: __ZNSt8__detailneERKNS_19_Node_iterator_baseISt4pairIKcSt13unordered_setI4EdgeIcESt4hashIS5_ESt8equal_toIS5_ESaIS5_EEELb0EEESF_, symObjAddr: 0x14E8, symBinAddr: 0x10000233E, symSize: 0x22 }
  - { offsetInCU: 0x1C29A, offset: 0x1C29A, size: 0x8, addend: 0x0, symName: __ZNSt13unordered_mapIcSt13unordered_setI4EdgeIcESt4hashIS2_ESt8equal_toIS2_ESaIS2_EES3_IcES5_IcESaISt4pairIKcS8_EEE4findERSC_, symObjAddr: 0x14A8, symBinAddr: 0x1000022FE, symSize: 0x26 }
  - { offsetInCU: 0x1C2DD, offset: 0x1C2DD, size: 0x8, addend: 0x0, symName: __ZNSt10_HashtableIcSt4pairIKcSt13unordered_setI4EdgeIcESt4hashIS4_ESt8equal_toIS4_ESaIS4_EEESaISB_ENSt8__detail10_Select1stES7_IcES5_IcENSD_18_Mod_range_hashingENSD_20_Default_ranged_hashENSD_20_Prime_rehash_policyENSD_17_Hashtable_traitsILb0ELb0ELb1EEEE21_M_deallocate_bucketsEPPNSD_15_Hash_node_baseEm, symObjAddr: 0x1460, symBinAddr: 0x1000022B6, symSize: 0x48 }
  - { offsetInCU: 0x1C334, offset: 0x1C334, size: 0x8, addend: 0x0, symName: __ZNSt8__detail16_Hashtable_allocISaINS_10_Hash_nodeISt4pairIKcSt13unordered_setI4EdgeIcESt4hashIS6_ESt8equal_toIS6_ESaIS6_EEELb0EEEEE19_M_deallocate_nodesEPSE_, symObjAddr: 0x1418, symBinAddr: 0x10000226E, symSize: 0x48 }
  - { offsetInCU: 0x1C33C, offset: 0x1C33C, size: 0x8, addend: 0x0, symName: __ZNSt10_HashtableIcSt4pairIKcSt13unordered_setI4EdgeIcESt4hashIS4_ESt8equal_toIS4_ESaIS4_EEESaISB_ENSt8__detail10_Select1stES7_IcES5_IcENSD_18_Mod_range_hashingENSD_20_Default_ranged_hashENSD_20_Prime_rehash_policyENSD_17_Hashtable_traitsILb0ELb0ELb1EEEE21_M_deallocate_bucketsEPPNSD_15_Hash_node_baseEm, symObjAddr: 0x1460, symBinAddr: 0x1000022B6, symSize: 0x48 }
  - { offsetInCU: 0x1C39D, offset: 0x1C39D, size: 0x8, addend: 0x0, symName: __ZNKSt10_HashtableIcSt4pairIKcSt13unordered_setI4EdgeIcESt4hashIS4_ESt8equal_toIS4_ESaIS4_EEESaISB_ENSt8__detail10_Select1stES7_IcES5_IcENSD_18_Mod_range_hashingENSD_20_Default_ranged_hashENSD_20_Prime_rehash_policyENSD_17_Hashtable_traitsILb0ELb0ELb1EEEE8_M_beginEv, symObjAddr: 0x1406, symBinAddr: 0x10000225C, symSize: 0x12 }
  - { offsetInCU: 0x1C3A5, offset: 0x1C3A5, size: 0x8, addend: 0x0, symName: __ZNSt8__detail16_Hashtable_allocISaINS_10_Hash_nodeISt4pairIKcSt13unordered_setI4EdgeIcESt4hashIS6_ESt8equal_toIS6_ESaIS6_EEELb0EEEEE19_M_deallocate_nodesEPSE_, symObjAddr: 0x1418, symBinAddr: 0x10000226E, symSize: 0x48 }
  - { offsetInCU: 0x1C3E5, offset: 0x1C3E5, size: 0x8, addend: 0x0, symName: __ZNSt5queueIcSt5dequeIcSaIcEEE4pushEOc, symObjAddr: 0x13D2, symBinAddr: 0x100002228, symSize: 0x34 }
  - { offsetInCU: 0x1C428, offset: 0x1C428, size: 0x8, addend: 0x0, symName: __ZNK4EdgeIcE7getNodeEv, symObjAddr: 0x13C0, symBinAddr: 0x100002216, symSize: 0x12 }
  - { offsetInCU: 0x1C457, offset: 0x1C457, size: 0x8, addend: 0x0, symName: __ZNKSt8__detail14_Node_iteratorI4EdgeIcELb1ELb1EEdeEv, symObjAddr: 0x139E, symBinAddr: 0x1000021F4, symSize: 0x22 }
  - { offsetInCU: 0x1C486, offset: 0x1C486, size: 0x8, addend: 0x0, symName: __ZNSt8__detail14_Node_iteratorI4EdgeIcELb1ELb1EEppEv, symObjAddr: 0x1380, symBinAddr: 0x1000021D6, symSize: 0x1E }
  - { offsetInCU: 0x1C48E, offset: 0x1C48E, size: 0x8, addend: 0x0, symName: __ZNKSt8__detail14_Node_iteratorI4EdgeIcELb1ELb1EEdeEv, symObjAddr: 0x139E, symBinAddr: 0x1000021F4, symSize: 0x22 }
  - { offsetInCU: 0x1C4FC, offset: 0x1C4FC, size: 0x8, addend: 0x0, symName: __ZNSt8__detailneERKNS_19_Node_iterator_baseI4EdgeIcELb1EEES5_, symObjAddr: 0x135E, symBinAddr: 0x1000021B4, symSize: 0x22 }
  - { offsetInCU: 0x1C504, offset: 0x1C504, size: 0x8, addend: 0x0, symName: __ZNSt8__detail14_Node_iteratorI4EdgeIcELb1ELb1EEppEv, symObjAddr: 0x1380, symBinAddr: 0x1000021D6, symSize: 0x1E }
  - { offsetInCU: 0x1C512, offset: 0x1C512, size: 0x8, addend: 0x0, symName: __ZNSt13unordered_setI4EdgeIcESt4hashIS1_ESt8equal_toIS1_ESaIS1_EE3endEv, symObjAddr: 0x1344, symBinAddr: 0x10000219A, symSize: 0x1A }
  - { offsetInCU: 0x1C51A, offset: 0x1C51A, size: 0x8, addend: 0x0, symName: __ZNSt8__detailneERKNS_19_Node_iterator_baseI4EdgeIcELb1EEES5_, symObjAddr: 0x135E, symBinAddr: 0x1000021B4, symSize: 0x22 }
  - { offsetInCU: 0x1C541, offset: 0x1C541, size: 0x8, addend: 0x0, symName: __ZNSt13unordered_setI4EdgeIcESt4hashIS1_ESt8equal_toIS1_ESaIS1_EE5beginEv, symObjAddr: 0x132A, symBinAddr: 0x100002180, symSize: 0x1A }
  - { offsetInCU: 0x1C549, offset: 0x1C549, size: 0x8, addend: 0x0, symName: __ZNSt13unordered_setI4EdgeIcESt4hashIS1_ESt8equal_toIS1_ESaIS1_EE3endEv, symObjAddr: 0x1344, symBinAddr: 0x10000219A, symSize: 0x1A }
  - { offsetInCU: 0x1C570, offset: 0x1C570, size: 0x8, addend: 0x0, symName: __ZNSt13unordered_setIcSt4hashIcESt8equal_toIcESaIcEE6insertERKc, symObjAddr: 0x1304, symBinAddr: 0x10000215A, symSize: 0x26 }
  - { offsetInCU: 0x1C5B3, offset: 0x1C5B3, size: 0x8, addend: 0x0, symName: __ZNKSt8functionIFvcEEclEc, symObjAddr: 0x12B2, symBinAddr: 0x100002108, symSize: 0x52 }
  - { offsetInCU: 0x1C636, offset: 0x1C636, size: 0x8, addend: 0x0, symName: __ZNSt8__detailneERKNS_19_Node_iterator_baseIcLb0EEES3_, symObjAddr: 0x1290, symBinAddr: 0x1000020E6, symSize: 0x22 }
  - { offsetInCU: 0x1C63E, offset: 0x1C63E, size: 0x8, addend: 0x0, symName: __ZNKSt8functionIFvcEEclEc, symObjAddr: 0x12B2, symBinAddr: 0x100002108, symSize: 0x52 }
  - { offsetInCU: 0x1C653, offset: 0x1C653, size: 0x8, addend: 0x0, symName: __ZNSt13unordered_setIcSt4hashIcESt8equal_toIcESaIcEE3endEv, symObjAddr: 0x1276, symBinAddr: 0x1000020CC, symSize: 0x1A }
  - { offsetInCU: 0x1C65B, offset: 0x1C65B, size: 0x8, addend: 0x0, symName: __ZNSt8__detailneERKNS_19_Node_iterator_baseIcLb0EEES3_, symObjAddr: 0x1290, symBinAddr: 0x1000020E6, symSize: 0x22 }
  - { offsetInCU: 0x1C682, offset: 0x1C682, size: 0x8, addend: 0x0, symName: __ZNSt13unordered_setIcSt4hashIcESt8equal_toIcESaIcEE4findERKc, symObjAddr: 0x1250, symBinAddr: 0x1000020A6, symSize: 0x26 }
  - { offsetInCU: 0x1C6C5, offset: 0x1C6C5, size: 0x8, addend: 0x0, symName: __ZNSt5queueIcSt5dequeIcSaIcEEE3popEv, symObjAddr: 0x1234, symBinAddr: 0x10000208A, symSize: 0x1C }
  - { offsetInCU: 0x1C6F4, offset: 0x1C6F4, size: 0x8, addend: 0x0, symName: __ZNSt5queueIcSt5dequeIcSaIcEEE5frontEv, symObjAddr: 0x121A, symBinAddr: 0x100002070, symSize: 0x1A }
  - { offsetInCU: 0x1C6FC, offset: 0x1C6FC, size: 0x8, addend: 0x0, symName: __ZNSt5queueIcSt5dequeIcSaIcEEE3popEv, symObjAddr: 0x1234, symBinAddr: 0x10000208A, symSize: 0x1C }
  - { offsetInCU: 0x1C723, offset: 0x1C723, size: 0x8, addend: 0x0, symName: __ZNKSt5queueIcSt5dequeIcSaIcEEE5emptyEv, symObjAddr: 0x1200, symBinAddr: 0x100002056, symSize: 0x1A }
  - { offsetInCU: 0x1C72B, offset: 0x1C72B, size: 0x8, addend: 0x0, symName: __ZNSt5queueIcSt5dequeIcSaIcEEE5frontEv, symObjAddr: 0x121A, symBinAddr: 0x100002070, symSize: 0x1A }
  - { offsetInCU: 0x1C752, offset: 0x1C752, size: 0x8, addend: 0x0, symName: __ZNSt5queueIcSt5dequeIcSaIcEEE4pushERKc, symObjAddr: 0x11DA, symBinAddr: 0x100002030, symSize: 0x26 }
  - { offsetInCU: 0x1C75A, offset: 0x1C75A, size: 0x8, addend: 0x0, symName: __ZNKSt5queueIcSt5dequeIcSaIcEEE5emptyEv, symObjAddr: 0x1200, symBinAddr: 0x100002056, symSize: 0x1A }
  - { offsetInCU: 0x1C87F, offset: 0x1C87F, size: 0x8, addend: 0x0, symName: __ZNSt10_HashtableIccSaIcENSt8__detail9_IdentityESt8equal_toIcESt4hashIcENS1_18_Mod_range_hashingENS1_20_Default_ranged_hashENS1_20_Prime_rehash_policyENS1_17_Hashtable_traitsILb0ELb1ELb1EEEED1Ev, symObjAddr: 0x11A6, symBinAddr: 0x100001FFC, symSize: 0x34 }
  - { offsetInCU: 0x1C879, offset: 0x1C879, size: 0x8, addend: 0x0, symName: __ZNSt8__detail21_Hashtable_ebo_helperILi0ESaINS_10_Hash_nodeIcLb0EEEELb1EEC2Ev, symObjAddr: 0x1188, symBinAddr: 0x100001FDE, symSize: 0x1E }
  - { offsetInCU: 0x1C8E3, offset: 0x1C8E3, size: 0x8, addend: 0x0, symName: __ZNSt5dequeIcSaIcEED1Ev, symObjAddr: 0x111C, symBinAddr: 0x100001F72, symSize: 0x6C }
  - { offsetInCU: 0x1C8EB, offset: 0x1C8EB, size: 0x8, addend: 0x0, symName: __ZNSt8__detail21_Hashtable_ebo_helperILi0ESaINS_10_Hash_nodeIcLb0EEEELb1EEC2Ev, symObjAddr: 0x1188, symBinAddr: 0x100001FDE, symSize: 0x1E }
  - { offsetInCU: 0x1C950, offset: 0x1C950, size: 0x8, addend: 0x0, symName: __ZNSt5queueIcSt5dequeIcSaIcEEEC1IS2_vEEv, symObjAddr: 0x10E6, symBinAddr: 0x100001F3C, symSize: 0x36 }
  - { offsetInCU: 0x1C99A, offset: 0x1C99A, size: 0x8, addend: 0x0, symName: __ZNSt5dequeIcSaIcEEC1Ev, symObjAddr: 0x10CA, symBinAddr: 0x100001F20, symSize: 0x1C }
  - { offsetInCU: 0x1C9B0, offset: 0x1C9B0, size: 0x8, addend: 0x0, symName: __ZN5GraphIcE8containsEc, symObjAddr: 0x107C, symBinAddr: 0x100001ED2, symSize: 0x4E }
  - { offsetInCU: 0x1C9F2, offset: 0x1C9F2, size: 0x8, addend: 0x0, symName: __ZNSt17_Function_handlerIFvcEZ4mainEUlcE_E10_M_managerERSt9_Any_dataRKS3_St18_Manager_operation, symObjAddr: 0x1000, symBinAddr: 0x100001E56, symSize: 0x7C }
  - { offsetInCU: 0x1CA4C, offset: 0x1CA4C, size: 0x8, addend: 0x0, symName: __ZNSt17_Function_handlerIFvcEZ4mainEUlcE_E9_M_invokeERKSt9_Any_dataOc, symObjAddr: 0xFC2, symBinAddr: 0x100001E18, symSize: 0x3E }
  - { offsetInCU: 0x1CA54, offset: 0x1CA54, size: 0x8, addend: 0x0, symName: __ZNSt17_Function_handlerIFvcEZ4mainEUlcE_E10_M_managerERSt9_Any_dataRKS3_St18_Manager_operation, symObjAddr: 0x1000, symBinAddr: 0x100001E56, symSize: 0x7C }
  - { offsetInCU: 0x1CA92, offset: 0x1CA92, size: 0x8, addend: 0x0, symName: __ZNSt14_Function_base13_Base_managerIZ4mainEUlcE_E15_M_init_functorIS1_EEvRSt9_Any_dataOT_, symObjAddr: 0xF91, symBinAddr: 0x100001DE7, symSize: 0x31 }
  - { offsetInCU: 0x1CA9A, offset: 0x1CA9A, size: 0x8, addend: 0x0, symName: __ZNSt17_Function_handlerIFvcEZ4mainEUlcE_E9_M_invokeERKSt9_Any_dataOc, symObjAddr: 0xFC2, symBinAddr: 0x100001E18, symSize: 0x3E }
  - { offsetInCU: 0x1CB07, offset: 0x1CB07, size: 0x8, addend: 0x0, symName: __ZSt7forwardIZ4mainEUlcE_EOT_RNSt16remove_referenceIS1_E4typeE, symObjAddr: 0xF83, symBinAddr: 0x100001DD9, symSize: 0xE }
  - { offsetInCU: 0x1CB0F, offset: 0x1CB0F, size: 0x8, addend: 0x0, symName: __ZNSt14_Function_base13_Base_managerIZ4mainEUlcE_E15_M_init_functorIS1_EEvRSt9_Any_dataOT_, symObjAddr: 0xF91, symBinAddr: 0x100001DE7, symSize: 0x31 }
  - { offsetInCU: 0x1CB32, offset: 0x1CB32, size: 0x8, addend: 0x0, symName: __ZNSt14_Function_base13_Base_managerIZ4mainEUlcE_E21_M_not_empty_functionIS1_EEbRKT_, symObjAddr: 0xF74, symBinAddr: 0x100001DCA, symSize: 0xF }
  - { offsetInCU: 0x1CB3A, offset: 0x1CB3A, size: 0x8, addend: 0x0, symName: __ZSt7forwardIZ4mainEUlcE_EOT_RNSt16remove_referenceIS1_E4typeE, symObjAddr: 0xF83, symBinAddr: 0x100001DD9, symSize: 0xE }
  - { offsetInCU: 0x1CB69, offset: 0x1CB69, size: 0x8, addend: 0x0, symName: __ZNKSt13unordered_setI4EdgeIcESt4hashIS1_ESt8equal_toIS1_ESaIS1_EE4sizeEv, symObjAddr: 0xF5A, symBinAddr: 0x100001DB0, symSize: 0x1A }
  - { offsetInCU: 0x1CB71, offset: 0x1CB71, size: 0x8, addend: 0x0, symName: __ZNSt14_Function_base13_Base_managerIZ4mainEUlcE_E21_M_not_empty_functionIS1_EEbRKT_, symObjAddr: 0xF74, symBinAddr: 0x100001DCA, symSize: 0xF }
  - { offsetInCU: 0x1CB98, offset: 0x1CB98, size: 0x8, addend: 0x0, symName: __ZNSt13unordered_setI4EdgeIcESt4hashIS1_ESt8equal_toIS1_ESaIS1_EE6insertEOS1_, symObjAddr: 0xF28, symBinAddr: 0x100001D7E, symSize: 0x32 }
  - { offsetInCU: 0x1CBA0, offset: 0x1CBA0, size: 0x8, addend: 0x0, symName: __ZNKSt13unordered_setI4EdgeIcESt4hashIS1_ESt8equal_toIS1_ESaIS1_EE4sizeEv, symObjAddr: 0xF5A, symBinAddr: 0x100001DB0, symSize: 0x1A }
  - { offsetInCU: 0x1CBDB, offset: 0x1CBDB, size: 0x8, addend: 0x0, symName: __ZNSt13unordered_setI4EdgeIcESt4hashIS1_ESt8equal_toIS1_ESaIS1_EE5eraseERKS1_, symObjAddr: 0xF02, symBinAddr: 0x100001D58, symSize: 0x26 }
  - { offsetInCU: 0x1CC68, offset: 0x1CC68, size: 0x8, addend: 0x0, symName: __ZN4EdgeIcEC1Ecd, symObjAddr: 0xED4, symBinAddr: 0x100001D2A, symSize: 0x2E }
  - { offsetInCU: 0x1CC9D, offset: 0x1CC9D, size: 0x8, addend: 0x0, symName: __ZNSt13unordered_mapIcSt13unordered_setI4EdgeIcESt4hashIS2_ESt8equal_toIS2_ESaIS2_EES3_IcES5_IcESaISt4pairIKcS8_EEE2atERSC_, symObjAddr: 0xEAE, symBinAddr: 0x100001D04, symSize: 0x26 }
  - { offsetInCU: 0x1CCE0, offset: 0x1CCE0, size: 0x8, addend: 0x0, symName: __ZN5GraphIcE3addEc, symObjAddr: 0xDE8, symBinAddr: 0x100001C3E, symSize: 0xC6 }
  - { offsetInCU: 0x1CCE8, offset: 0x1CCE8, size: 0x8, addend: 0x0, symName: __ZNSt13unordered_mapIcSt13unordered_setI4EdgeIcESt4hashIS2_ESt8equal_toIS2_ESaIS2_EES3_IcES5_IcESaISt4pairIKcS8_EEE2atERSC_, symObjAddr: 0xEAE, symBinAddr: 0x100001D04, symSize: 0x26 }
  - { offsetInCU: 0x1CD39, offset: 0x1CD39, size: 0x8, addend: 0x0, symName: __ZNSt13unordered_setI4EdgeIcESt4hashIS1_ESt8equal_toIS1_ESaIS1_EEaSEOS7_, symObjAddr: 0xDBE, symBinAddr: 0x100001C14, symSize: 0x2A }
  - { offsetInCU: 0x1CDE4, offset: 0x1CDE4, size: 0x8, addend: 0x0, symName: __ZNSt13unordered_setI4EdgeIcESt4hashIS1_ESt8equal_toIS1_ESaIS1_EED1Ev, symObjAddr: 0xDA2, symBinAddr: 0x100001BF8, symSize: 0x1C }
  - { offsetInCU: 0x1CE2B, offset: 0x1CE2B, size: 0x8, addend: 0x0, symName: __ZNSt13unordered_setI4EdgeIcESt4hashIS1_ESt8equal_toIS1_ESaIS1_EEC1Ev, symObjAddr: 0xD86, symBinAddr: 0x100001BDC, symSize: 0x1C }
  - { offsetInCU: 0x1CEFE, offset: 0x1CEFE, size: 0x8, addend: 0x0, symName: __ZNSt10_HashtableI4EdgeIcES1_SaIS1_ENSt8__detail9_IdentityESt8equal_toIS1_ESt4hashIS1_ENS3_18_Mod_range_hashingENS3_20_Default_ranged_hashENS3_20_Prime_rehash_policyENS3_17_Hashtable_traitsILb1ELb1ELb1EEEEC1Ev, symObjAddr: 0xD02, symBinAddr: 0x100001B58, symSize: 0x84 }
  - { offsetInCU: 0x1CF06, offset: 0x1CF06, size: 0x8, addend: 0x0, symName: __ZNSt13unordered_setI4EdgeIcESt4hashIS1_ESt8equal_toIS1_ESaIS1_EEC1Ev, symObjAddr: 0xD86, symBinAddr: 0x100001BDC, symSize: 0x1C }
  - { offsetInCU: 0x1CECE, offset: 0x1CECE, size: 0x8, addend: 0x0, symName: __ZNSt8__detail16_Hashtable_allocISaINS_10_Hash_nodeI4EdgeIcELb1EEEEED2Ev, symObjAddr: 0xCE6, symBinAddr: 0x100001B3C, symSize: 0x1C }
  - { offsetInCU: 0x1CF15, offset: 0x1CF15, size: 0x8, addend: 0x0, symName: __ZNSt8__detail16_Hashtable_allocISaINS_10_Hash_nodeI4EdgeIcELb1EEEEEC2Ev, symObjAddr: 0xCCA, symBinAddr: 0x100001B20, symSize: 0x1C }
  - { offsetInCU: 0x1CF7B, offset: 0x1CF7B, size: 0x8, addend: 0x0, symName: __ZNSt8__detail21_Hashtable_ebo_helperILi0ESaINS_10_Hash_nodeI4EdgeIcELb1EEEELb1EED2Ev, symObjAddr: 0xCA6, symBinAddr: 0x100001AFC, symSize: 0x24 }
  - { offsetInCU: 0x1CF83, offset: 0x1CF83, size: 0x8, addend: 0x0, symName: __ZNSt8__detail16_Hashtable_allocISaINS_10_Hash_nodeI4EdgeIcELb1EEEEEC2Ev, symObjAddr: 0xCCA, symBinAddr: 0x100001B20, symSize: 0x1C }
  - { offsetInCU: 0x1D044, offset: 0x1D044, size: 0x8, addend: 0x0, symName: __ZNSt8__detail15_Hashtable_baseI4EdgeIcES2_NS_9_IdentityESt8equal_toIS2_ESt4hashIS2_ENS_18_Mod_range_hashingENS_20_Default_ranged_hashENS_17_Hashtable_traitsILb1ELb1ELb1EEEEC2Ev, symObjAddr: 0xC7E, symBinAddr: 0x100001AD4, symSize: 0x28 }
  - { offsetInCU: 0x1D05A, offset: 0x1D05A, size: 0x8, addend: 0x0, symName: __ZNSt8__detail15_Hash_code_baseI4EdgeIcES2_NS_9_IdentityESt4hashIS2_ENS_18_Mod_range_hashingENS_20_Default_ranged_hashELb1EEC2Ev, symObjAddr: 0xC62, symBinAddr: 0x100001AB8, symSize: 0x1C }
  - { offsetInCU: 0x1D007, offset: 0x1D007, size: 0x8, addend: 0x0, symName: __ZNSt10_HashtableIcSt4pairIKcSt13unordered_setI4EdgeIcESt4hashIS4_ESt8equal_toIS4_ESaIS4_EEESaISB_ENSt8__detail10_Select1stES7_IcES5_IcENSD_18_Mod_range_hashingENSD_20_Default_ranged_hashENSD_20_Prime_rehash_policyENSD_17_Hashtable_traitsILb0ELb0ELb1EEEE21_M_deallocate_bucketsEv, symObjAddr: 0xC34, symBinAddr: 0x100001A8A, symSize: 0x2E }
  - { offsetInCU: 0x1D036, offset: 0x1D036, size: 0x8, addend: 0x0, symName: __ZNSt10_HashtableIcSt4pairIKcSt13unordered_setI4EdgeIcESt4hashIS4_ESt8equal_toIS4_ESaIS4_EEESaISB_ENSt8__detail10_Select1stES7_IcES5_IcENSD_18_Mod_range_hashingENSD_20_Default_ranged_hashENSD_20_Prime_rehash_policyENSD_17_Hashtable_traitsILb0ELb0ELb1EEEE5clearEv, symObjAddr: 0xBCA, symBinAddr: 0x100001A20, symSize: 0x6A }
  - { offsetInCU: 0x1D111, offset: 0x1D111, size: 0x8, addend: 0x0, symName: __ZNSt15__new_allocatorINSt8__detail10_Hash_nodeISt4pairIKcSt13unordered_setI4EdgeIcESt4hashIS6_ESt8equal_toIS6_ESaIS6_EEELb0EEEED2Ev, symObjAddr: 0xBBE, symBinAddr: 0x100001A14, symSize: 0xC }
  - { offsetInCU: 0x1D119, offset: 0x1D119, size: 0x8, addend: 0x0, symName: __ZSt7forwardIbEOT_RNSt16remove_referenceIS0_E4typeE, symObjAddr: 0xBB0, symBinAddr: 0x100001A06, symSize: 0xE }
  - { offsetInCU: 0x1D121, offset: 0x1D121, size: 0x8, addend: 0x0, symName: __ZNSt15__new_allocatorINSt8__detail10_Hash_nodeISt4pairIKcSt13unordered_setI4EdgeIcESt4hashIS6_ESt8equal_toIS6_ESaIS6_EEELb0EEEED2Ev, symObjAddr: 0xBBE, symBinAddr: 0x100001A14, symSize: 0xC }
  - { offsetInCU: 0x1D127, offset: 0x1D127, size: 0x8, addend: 0x0, symName: __ZN5GraphIcE18breadFirstTraverseEcSt8functionIFvcEE, symObjAddr: 0x952, symBinAddr: 0x1000017A8, symSize: 0x25E }
  - { offsetInCU: 0x1D12F, offset: 0x1D12F, size: 0x8, addend: 0x0, symName: __ZSt7forwardIbEOT_RNSt16remove_referenceIS0_E4typeE, symObjAddr: 0xBB0, symBinAddr: 0x100001A06, symSize: 0xE }
  - { offsetInCU: 0x1D2B1, offset: 0x1D2B1, size: 0x8, addend: 0x0, symName: __ZNSt13unordered_setIcSt4hashIcESt8equal_toIcESaIcEED1Ev, symObjAddr: 0x936, symBinAddr: 0x10000178C, symSize: 0x1C }
  - { offsetInCU: 0x1D2F8, offset: 0x1D2F8, size: 0x8, addend: 0x0, symName: __ZNSt13unordered_setIcSt4hashIcESt8equal_toIcESaIcEEC1Ev, symObjAddr: 0x91A, symBinAddr: 0x100001770, symSize: 0x1C }
  - { offsetInCU: 0x1D3C9, offset: 0x1D3C9, size: 0x8, addend: 0x0, symName: __ZNSt10_HashtableIccSaIcENSt8__detail9_IdentityESt8equal_toIcESt4hashIcENS1_18_Mod_range_hashingENS1_20_Default_ranged_hashENS1_20_Prime_rehash_policyENS1_17_Hashtable_traitsILb0ELb1ELb1EEEEC1Ev, symObjAddr: 0x896, symBinAddr: 0x1000016EC, symSize: 0x84 }
  - { offsetInCU: 0x1D3D1, offset: 0x1D3D1, size: 0x8, addend: 0x0, symName: __ZNSt13unordered_setIcSt4hashIcESt8equal_toIcESaIcEEC1Ev, symObjAddr: 0x91A, symBinAddr: 0x100001770, symSize: 0x1C }
  - { offsetInCU: 0x1D3A1, offset: 0x1D3A1, size: 0x8, addend: 0x0, symName: __ZNSt8__detail16_Hashtable_allocISaINS_10_Hash_nodeIcLb0EEEEED2Ev, symObjAddr: 0x87A, symBinAddr: 0x1000016D0, symSize: 0x1C }
  - { offsetInCU: 0x1D3E8, offset: 0x1D3E8, size: 0x8, addend: 0x0, symName: __ZNSt8__detail16_Hashtable_allocISaINS_10_Hash_nodeIcLb0EEEEEC2Ev, symObjAddr: 0x85E, symBinAddr: 0x1000016B4, symSize: 0x1C }
  - { offsetInCU: 0x1D44E, offset: 0x1D44E, size: 0x8, addend: 0x0, symName: __ZNSt8__detail21_Hashtable_ebo_helperILi0ESaINS_10_Hash_nodeIcLb0EEEELb1EED2Ev, symObjAddr: 0x83A, symBinAddr: 0x100001690, symSize: 0x24 }
  - { offsetInCU: 0x1D456, offset: 0x1D456, size: 0x8, addend: 0x0, symName: __ZNSt8__detail16_Hashtable_allocISaINS_10_Hash_nodeIcLb0EEEEEC2Ev, symObjAddr: 0x85E, symBinAddr: 0x1000016B4, symSize: 0x1C }
  - { offsetInCU: 0x1D511, offset: 0x1D511, size: 0x8, addend: 0x0, symName: __ZNSt8__detail15_Hashtable_baseIccNS_9_IdentityESt8equal_toIcESt4hashIcENS_18_Mod_range_hashingENS_20_Default_ranged_hashENS_17_Hashtable_traitsILb0ELb1ELb1EEEEC2Ev, symObjAddr: 0x812, symBinAddr: 0x100001668, symSize: 0x28 }
  - { offsetInCU: 0x1D529, offset: 0x1D529, size: 0x8, addend: 0x0, symName: __ZNSt8__detail15_Hash_code_baseIccNS_9_IdentityESt4hashIcENS_18_Mod_range_hashingENS_20_Default_ranged_hashELb0EEC2Ev, symObjAddr: 0x7F6, symBinAddr: 0x10000164C, symSize: 0x1C }
  - { offsetInCU: 0x1D52E, offset: 0x1D52E, size: 0x8, addend: 0x0, symName: __ZNSt5queueIcSt5dequeIcSaIcEEED1Ev, symObjAddr: 0x7DA, symBinAddr: 0x100001630, symSize: 0x1C }
  - { offsetInCU: 0x1D579, offset: 0x1D579, size: 0x8, addend: 0x0, symName: __ZNSt8functionIFvcEEC1IZ4mainEUlcE_vEEOT_, symObjAddr: 0x748, symBinAddr: 0x10000159E, symSize: 0x92 }
  - { offsetInCU: 0x1D581, offset: 0x1D581, size: 0x8, addend: 0x0, symName: __ZNSt5queueIcSt5dequeIcSaIcEEED1Ev, symObjAddr: 0x7DA, symBinAddr: 0x100001630, symSize: 0x1C }
  - { offsetInCU: 0x1D619, offset: 0x1D619, size: 0x8, addend: 0x0, symName: __ZNSt14_Function_baseC2Ev, symObjAddr: 0x71E, symBinAddr: 0x100001574, symSize: 0x2A }
  - { offsetInCU: 0x1D621, offset: 0x1D621, size: 0x8, addend: 0x0, symName: __ZNSt8functionIFvcEEC1IZ4mainEUlcE_vEEOT_, symObjAddr: 0x748, symBinAddr: 0x10000159E, symSize: 0x92 }
  - { offsetInCU: 0x1D62D, offset: 0x1D62D, size: 0x8, addend: 0x0, symName: __ZN5GraphIcE7addEdgeEccd, symObjAddr: 0x5CC, symBinAddr: 0x100001422, symSize: 0x152 }
  - { offsetInCU: 0x1D635, offset: 0x1D635, size: 0x8, addend: 0x0, symName: __ZNSt14_Function_baseC2Ev, symObjAddr: 0x71E, symBinAddr: 0x100001574, symSize: 0x2A }
  - { offsetInCU: 0x1D7FF, offset: 0x1D7FF, size: 0x8, addend: 0x0, symName: __ZNSt10_HashtableIcSt4pairIKcSt13unordered_setI4EdgeIcESt4hashIS4_ESt8equal_toIS4_ESaIS4_EEESaISB_ENSt8__detail10_Select1stES7_IcES5_IcENSD_18_Mod_range_hashingENSD_20_Default_ranged_hashENSD_20_Prime_rehash_policyENSD_17_Hashtable_traitsILb0ELb0ELb1EEEED1Ev, symObjAddr: 0x598, symBinAddr: 0x1000013EE, symSize: 0x34 }
  - { offsetInCU: 0x1D801, offset: 0x1D801, size: 0x8, addend: 0x0, symName: __ZNSt8__detail21_Hashtable_ebo_helperILi0ESaINS_10_Hash_nodeISt4pairIKcSt13unordered_setI4EdgeIcESt4hashIS6_ESt8equal_toIS6_ESaIS6_EEELb0EEEELb1EEC2Ev, symObjAddr: 0x57A, symBinAddr: 0x1000013D0, symSize: 0x1E }
  - { offsetInCU: 0x1D83F, offset: 0x1D83F, size: 0x8, addend: 0x0, symName: __ZNSt8__detail21_Hashtable_ebo_helperILi0ESt8equal_toIcELb1EEC2Ev, symObjAddr: 0x56E, symBinAddr: 0x1000013C4, symSize: 0xC }
  - { offsetInCU: 0x1D882, offset: 0x1D882, size: 0x8, addend: 0x0, symName: __ZNSt8__detail21_Hashtable_ebo_helperILi1ESt4hashIcELb1EEC2Ev, symObjAddr: 0x562, symBinAddr: 0x1000013B8, symSize: 0xC }
  - { offsetInCU: 0x1D8A4, offset: 0x1D8A4, size: 0x8, addend: 0x0, symName: __ZSt3maxImERKT_S2_S2_, symObjAddr: 0x537, symBinAddr: 0x10000138D, symSize: 0x2B }
  - { offsetInCU: 0x1D8AC, offset: 0x1D8AC, size: 0x8, addend: 0x0, symName: __ZNSt8__detail21_Hashtable_ebo_helperILi1ESt4hashIcELb1EEC2Ev, symObjAddr: 0x562, symBinAddr: 0x1000013B8, symSize: 0xC }
  - { offsetInCU: 0x1D8DC, offset: 0x1D8DC, size: 0x8, addend: 0x0, symName: _main, symObjAddr: 0x393, symBinAddr: 0x1000011E9, symSize: 0x1A4 }
  - { offsetInCU: 0x1D8E4, offset: 0x1D8E4, size: 0x8, addend: 0x0, symName: __ZSt3maxImERKT_S2_S2_, symObjAddr: 0x537, symBinAddr: 0x10000138D, symSize: 0x2B }
  - { offsetInCU: 0x1D95A, offset: 0x1D95A, size: 0x8, addend: 0x0, symName: __ZZ4mainENKUlcE_clEc, symObjAddr: 0x34A, symBinAddr: 0x1000011A0, symSize: 0x2E }
  - { offsetInCU: 0x1D962, offset: 0x1D962, size: 0x8, addend: 0x0, symName: __ZNSt8functionIFvcEED1Ev, symObjAddr: 0x378, symBinAddr: 0x1000011CE, symSize: 0x1B }
  - { offsetInCU: 0x1D9F0, offset: 0x1D9F0, size: 0x8, addend: 0x0, symName: __ZNSt8functionIFvcEED1Ev, symObjAddr: 0x378, symBinAddr: 0x1000011CE, symSize: 0x1B }
  - { offsetInCU: 0x1D9F8, offset: 0x1D9F8, size: 0x8, addend: 0x0, symName: _main, symObjAddr: 0x393, symBinAddr: 0x1000011E9, symSize: 0x1A4 }
  - { offsetInCU: 0x1DA40, offset: 0x1DA40, size: 0x8, addend: 0x0, symName: __ZN5GraphIcED1Ev, symObjAddr: 0x32E, symBinAddr: 0x100001184, symSize: 0x1C }
  - { offsetInCU: 0x1DA8A, offset: 0x1DA8A, size: 0x8, addend: 0x0, symName: __ZN5GraphIcEC1Ev, symObjAddr: 0x312, symBinAddr: 0x100001168, symSize: 0x1C }
  - { offsetInCU: 0x1DB49, offset: 0x1DB49, size: 0x8, addend: 0x0, symName: __ZNSt13unordered_mapIcSt13unordered_setI4EdgeIcESt4hashIS2_ESt8equal_toIS2_ESaIS2_EES3_IcES5_IcESaISt4pairIKcS8_EEED1Ev, symObjAddr: 0x2F6, symBinAddr: 0x10000114C, symSize: 0x1C }
  - { offsetInCU: 0x1DB90, offset: 0x1DB90, size: 0x8, addend: 0x0, symName: __ZNSt13unordered_mapIcSt13unordered_setI4EdgeIcESt4hashIS2_ESt8equal_toIS2_ESaIS2_EES3_IcES5_IcESaISt4pairIKcS8_EEEC1Ev, symObjAddr: 0x2DA, symBinAddr: 0x100001130, symSize: 0x1C }
  - { offsetInCU: 0x1DC62, offset: 0x1DC62, size: 0x8, addend: 0x0, symName: __ZNSt10_HashtableIcSt4pairIKcSt13unordered_setI4EdgeIcESt4hashIS4_ESt8equal_toIS4_ESaIS4_EEESaISB_ENSt8__detail10_Select1stES7_IcES5_IcENSD_18_Mod_range_hashingENSD_20_Default_ranged_hashENSD_20_Prime_rehash_policyENSD_17_Hashtable_traitsILb0ELb0ELb1EEEEC1Ev, symObjAddr: 0x256, symBinAddr: 0x1000010AC, symSize: 0x84 }
  - { offsetInCU: 0x1DC6A, offset: 0x1DC6A, size: 0x8, addend: 0x0, symName: __ZNSt13unordered_mapIcSt13unordered_setI4EdgeIcESt4hashIS2_ESt8equal_toIS2_ESaIS2_EES3_IcES5_IcESaISt4pairIKcS8_EEEC1Ev, symObjAddr: 0x2DA, symBinAddr: 0x100001130, symSize: 0x1C }
  - { offsetInCU: 0x1DC42, offset: 0x1DC42, size: 0x8, addend: 0x0, symName: __ZNSt8__detail16_Hashtable_allocISaINS_10_Hash_nodeISt4pairIKcSt13unordered_setI4EdgeIcESt4hashIS6_ESt8equal_toIS6_ESaIS6_EEELb0EEEEED2Ev, symObjAddr: 0x23A, symBinAddr: 0x100001090, symSize: 0x1C }
  - { offsetInCU: 0x1DC89, offset: 0x1DC89, size: 0x8, addend: 0x0, symName: __ZNSt8__detail16_Hashtable_allocISaINS_10_Hash_nodeISt4pairIKcSt13unordered_setI4EdgeIcESt4hashIS6_ESt8equal_toIS6_ESaIS6_EEELb0EEEEEC2Ev, symObjAddr: 0x21E, symBinAddr: 0x100001074, symSize: 0x1C }
  - { offsetInCU: 0x1DCEF, offset: 0x1DCEF, size: 0x8, addend: 0x0, symName: __ZNSt8__detail21_Hashtable_ebo_helperILi0ESaINS_10_Hash_nodeISt4pairIKcSt13unordered_setI4EdgeIcESt4hashIS6_ESt8equal_toIS6_ESaIS6_EEELb0EEEELb1EED2Ev, symObjAddr: 0x1FA, symBinAddr: 0x100001050, symSize: 0x24 }
  - { offsetInCU: 0x1DCF7, offset: 0x1DCF7, size: 0x8, addend: 0x0, symName: __ZNSt8__detail16_Hashtable_allocISaINS_10_Hash_nodeISt4pairIKcSt13unordered_setI4EdgeIcESt4hashIS6_ESt8equal_toIS6_ESaIS6_EEELb0EEEEEC2Ev, symObjAddr: 0x21E, symBinAddr: 0x100001074, symSize: 0x1C }
  - { offsetInCU: 0x1DDA8, offset: 0x1DDA8, size: 0x8, addend: 0x0, symName: __ZNSt8__detail15_Hashtable_baseIcSt4pairIKcSt13unordered_setI4EdgeIcESt4hashIS5_ESt8equal_toIS5_ESaIS5_EEENS_10_Select1stES8_IcES6_IcENS_18_Mod_range_hashingENS_20_Default_ranged_hashENS_17_Hashtable_traitsILb0ELb0ELb1EEEEC2Ev, symObjAddr: 0x1D2, symBinAddr: 0x100001028, symSize: 0x28 }
  - { offsetInCU: 0x1DDC8, offset: 0x1DDC8, size: 0x8, addend: 0x0, symName: __ZNSt8__detail15_Hash_code_baseIcSt4pairIKcSt13unordered_setI4EdgeIcESt4hashIS5_ESt8equal_toIS5_ESaIS5_EEENS_10_Select1stES6_IcENS_18_Mod_range_hashingENS_20_Default_ranged_hashELb0EEC2Ev, symObjAddr: 0x1B6, symBinAddr: 0x10000100C, symSize: 0x1C }
  - { offsetInCU: 0x1DD3A, offset: 0x1DD3A, size: 0x8, addend: 0x0, symName: __ZNKSt14_Function_base8_M_emptyEv, symObjAddr: 0x19E, symBinAddr: 0x100000FF4, symSize: 0x18 }
  - { offsetInCU: 0x1DD42, offset: 0x1DD42, size: 0x8, addend: 0x0, symName: __ZNSt8__detail15_Hash_code_baseIcSt4pairIKcSt13unordered_setI4EdgeIcESt4hashIS5_ESt8equal_toIS5_ESaIS5_EEENS_10_Select1stES6_IcENS_18_Mod_range_hashingENS_20_Default_ranged_hashELb0EEC2Ev, symObjAddr: 0x1B6, symBinAddr: 0x10000100C, symSize: 0x1C }
  - { offsetInCU: 0x1DDAA, offset: 0x1DDAA, size: 0x8, addend: 0x0, symName: __ZNSt14_Function_baseD2Ev, symObjAddr: 0x164, symBinAddr: 0x100000FBA, symSize: 0x3A }
  - { offsetInCU: 0x1DDB2, offset: 0x1DDB2, size: 0x8, addend: 0x0, symName: __ZNKSt14_Function_base8_M_emptyEv, symObjAddr: 0x19E, symBinAddr: 0x100000FF4, symSize: 0x18 }
  - { offsetInCU: 0x1DDC2, offset: 0x1DDC2, size: 0x8, addend: 0x0, symName: __ZNKSt9_Any_data9_M_accessEv, symObjAddr: 0x156, symBinAddr: 0x100000FAC, symSize: 0xE }
  - { offsetInCU: 0x1DDCA, offset: 0x1DDCA, size: 0x8, addend: 0x0, symName: __ZNSt14_Function_baseD2Ev, symObjAddr: 0x164, symBinAddr: 0x100000FBA, symSize: 0x3A }
  - { offsetInCU: 0x1DDF9, offset: 0x1DDF9, size: 0x8, addend: 0x0, symName: __ZNSt9_Any_data9_M_accessEv, symObjAddr: 0x148, symBinAddr: 0x100000F9E, symSize: 0xE }
  - { offsetInCU: 0x1DE01, offset: 0x1DE01, size: 0x8, addend: 0x0, symName: __ZNKSt9_Any_data9_M_accessEv, symObjAddr: 0x156, symBinAddr: 0x100000FAC, symSize: 0xE }
  - { offsetInCU: 0x1DE59, offset: 0x1DE59, size: 0x8, addend: 0x0, symName: __ZSt16__deque_buf_sizem, symObjAddr: 0x11E, symBinAddr: 0x100000F74, symSize: 0x2A }
  - { offsetInCU: 0x1DE9A, offset: 0x1DE9A, size: 0x8, addend: 0x0, symName: __ZSt3minImERKT_S2_S2_, symObjAddr: 0xF3, symBinAddr: 0x100000F49, symSize: 0x2B }
  - { offsetInCU: 0x1DEA2, offset: 0x1DEA2, size: 0x8, addend: 0x0, symName: __ZSt16__deque_buf_sizem, symObjAddr: 0x11E, symBinAddr: 0x100000F74, symSize: 0x2A }
  - { offsetInCU: 0x1DEC6, offset: 0x1DEC6, size: 0x8, addend: 0x0, symName: __ZNSt8__detail20_Prime_rehash_policy8_M_resetEm, symObjAddr: 0xD8, symBinAddr: 0x100000F2E, symSize: 0x1B }
  - { offsetInCU: 0x1DECE, offset: 0x1DECE, size: 0x8, addend: 0x0, symName: __ZSt3minImERKT_S2_S2_, symObjAddr: 0xF3, symBinAddr: 0x100000F49, symSize: 0x2B }
  - { offsetInCU: 0x1DF09, offset: 0x1DF09, size: 0x8, addend: 0x0, symName: __ZNSt8__detail20_Prime_rehash_policy8_M_resetEv, symObjAddr: 0xC0, symBinAddr: 0x100000F16, symSize: 0x18 }
  - { offsetInCU: 0x1DF38, offset: 0x1DF38, size: 0x8, addend: 0x0, symName: __ZNKSt8__detail20_Prime_rehash_policy8_M_stateEv, symObjAddr: 0xAE, symBinAddr: 0x100000F04, symSize: 0x12 }
  - { offsetInCU: 0x1DF40, offset: 0x1DF40, size: 0x8, addend: 0x0, symName: __ZNSt8__detail20_Prime_rehash_policy8_M_resetEv, symObjAddr: 0xC0, symBinAddr: 0x100000F16, symSize: 0x18 }
  - { offsetInCU: 0x1DFBA, offset: 0x1DFBA, size: 0x8, addend: 0x0, symName: __ZNSt8__detail20_Prime_rehash_policyC1Ef, symObjAddr: 0x84, symBinAddr: 0x100000EDA, symSize: 0x2A }
  - { offsetInCU: 0x1DFCB, offset: 0x1DFCB, size: 0x8, addend: 0x0, symName: __ZNKSt8__detail18_Mod_range_hashingclEmm, symObjAddr: 0x62, symBinAddr: 0x100000EB8, symSize: 0x22 }
  - { offsetInCU: 0x1DFD3, offset: 0x1DFD3, size: 0x8, addend: 0x0, symName: __ZNSt8__detail20_Prime_rehash_policyC1Ef, symObjAddr: 0x84, symBinAddr: 0x100000EDA, symSize: 0x2A }
  - { offsetInCU: 0x1E05F, offset: 0x1E05F, size: 0x8, addend: 0x0, symName: __ZNSt8__detail15_Hash_node_baseC1Ev, symObjAddr: 0x4C, symBinAddr: 0x100000EA2, symSize: 0x16 }
  - { offsetInCU: 0x1E067, offset: 0x1E067, size: 0x8, addend: 0x0, symName: __ZNKSt8__detail18_Mod_range_hashingclEmm, symObjAddr: 0x62, symBinAddr: 0x100000EB8, symSize: 0x22 }
  - { offsetInCU: 0x1E08D, offset: 0x1E08D, size: 0x8, addend: 0x0, symName: __ZNSt8__detail15_Hash_node_baseC2Ev, symObjAddr: 0x36, symBinAddr: 0x100000E8C, symSize: 0x16 }
  - { offsetInCU: 0x1E095, offset: 0x1E095, size: 0x8, addend: 0x0, symName: __ZNSt8__detail15_Hash_node_baseC1Ev, symObjAddr: 0x4C, symBinAddr: 0x100000EA2, symSize: 0x16 }
  - { offsetInCU: 0x1E0A5, offset: 0x1E0A5, size: 0x8, addend: 0x0, symName: __ZdlPvS_, symObjAddr: 0x26, symBinAddr: 0x100000E7C, symSize: 0x10 }
  - { offsetInCU: 0x1E0E3, offset: 0x1E0E3, size: 0x8, addend: 0x0, symName: __ZnwmPv, symObjAddr: 0x14, symBinAddr: 0x100000E6A, symSize: 0x12 }
  - { offsetInCU: 0x1E0EB, offset: 0x1E0EB, size: 0x8, addend: 0x0, symName: __ZdlPvS_, symObjAddr: 0x26, symBinAddr: 0x100000E7C, symSize: 0x10 }
  - { offsetInCU: 0x1E11B, offset: 0x1E11B, size: 0x8, addend: 0x0, symName: __ZNKSt4hashIcEclEc, symObjAddr: 0x0, symBinAddr: 0x100000E56, symSize: 0x14 }
  - { offsetInCU: 0x1E123, offset: 0x1E123, size: 0x8, addend: 0x0, symName: __ZnwmPv, symObjAddr: 0x14, symBinAddr: 0x100000E6A, symSize: 0x12 }
...
